(lp0
S'https://apnews.com/b73ca87c217641ce8e29b45f6116bdb4'
p1
aS'https://apnews.com/6cca5233beb248288b28fae9f9b89fd0'
p2
aS'https://apnews.com/beed20cf2884490a9e1da5ced4042c44'
p3
aS'https://apnews.com/046be14c471047ec9c4d57326d33d997'
p4
aS'https://apnews.com/d98021c8616a451e9eca958638099abd'
p5
aS'https://apnews.com/e9f4ac68b3624bdd8a83176245d44e8a'
p6
aS'https://apnews.com/4621c3fd499e4ca38a9be73c4f017d9e'
p7
aS'https://apnews.com/e316440541064b8a9386fa85ae8ffa7b'
p8
aS'https://apnews.com/f5b8ac66a89d4ce0ab8abbc34f79b7d8'
p9
aS'https://apnews.com/475dbbe238ac4820a5c2c32091aab499'
p10
a.