(lp0
S'https://apnews.com/846c1565dc4040dabceceb5bd39ff8fd'
p1
aS'https://apnews.com/b9eb42290aec47dea8f2dcad85ecc1dc'
p2
aS'https://apnews.com/c618b24406e549d19e2de03d3f634286'
p3
aS'https://apnews.com/4509ab53e96b4ce38000bb2e232f33ad'
p4
aS'https://apnews.com/9a8f135cb6094f0cbae3a928024ed6bc'
p5
aS'https://apnews.com/3e48d89030f847fd97cab68c9818b150'
p6
aS'https://apnews.com/b22b2c2732ca421cb60c4bca09cd9052'
p7
aS'https://apnews.com/4fa34ef241ca4257ac8ad51f81cbca58'
p8
aS'https://apnews.com/3feb224688ce42eb9491c94d19dcf3a3'
p9
aS'https://apnews.com/3598029e2f664412ab52505393befcc2'
p10
a.