(lp0
S'https://apnews.com/6cca5233beb248288b28fae9f9b89fd0'
p1
aS'https://apnews.com/beed20cf2884490a9e1da5ced4042c44'
p2
aS'https://apnews.com/046be14c471047ec9c4d57326d33d997'
p3
aS'https://apnews.com/d98021c8616a451e9eca958638099abd'
p4
aS'https://apnews.com/e9f4ac68b3624bdd8a83176245d44e8a'
p5
aS'https://apnews.com/4621c3fd499e4ca38a9be73c4f017d9e'
p6
aS'https://apnews.com/475dbbe238ac4820a5c2c32091aab499'
p7
aS'https://apnews.com/8c220b9ee5a7407b90eb49f315e0cc2d'
p8
aS'https://apnews.com/8e7472a52de7481080cc570ed15943c7'
p9
aS'https://apnews.com/d557923ee14b469fa3f93974631017f0'
p10
a.