(lp0
S'https://apnews.com/1fdf5ea863554d45b2550914f0237870'
p1
aS'https://apnews.com/fe68af2c1a4343c08ea3e6eea69180b5'
p2
aS'https://apnews.com/4d3ecd5f8fed434293d384f5a7ba75b9'
p3
aS'https://apnews.com/1fdf5ea863554d45b2550914f0237870'
p4
aS'https://apnews.com/fe68af2c1a4343c08ea3e6eea69180b5'
p5
aS'https://apnews.com/4d3ecd5f8fed434293d384f5a7ba75b9'
p6
aS'https://apnews.com/6150ee8349fe4cb78a5293b82cf68de9'
p7
aS'https://apnews.com/331a9dd83ac3471d8b4cdae5ee336502'
p8
aS'https://apnews.com/88712eabb2104693b97a38b6ab498371'
p9
aS'https://apnews.com/4e34f7952c5b434faab5ddb26941ac6d'
p10
a.