(lp0
S'https://apnews.com/34cc8d59e8724569b38f95312f771bac'
p1
aS'https://apnews.com/dac0502eab2e427185a7374628affa1e'
p2
aS'https://apnews.com/5ce62b6317bf4f7f8d77d0f75b0f3e5c'
p3
aS'https://apnews.com/26175c2cb7154af3bbc909b3571d59fd'
p4
aS'https://apnews.com/c2c1de76fee3491ba4e50769f0a4104f'
p5
aS'https://apnews.com/bbb5a8a4a9f445498f35907ef6a0e4e1'
p6
aS'https://apnews.com/8fe1457a5af945869fe0dcde1e331cc6'
p7
aS'https://apnews.com/e48292da59ea401c98561756ca6df50c'
p8
aS'https://apnews.com/b76d1c0d501940bc8c5e4a423309a02c'
p9
aS'https://apnews.com/73c3d49e28214f6f90c32771333711e2'
p10
a.