(lp0
S'https://apnews.com/5f2002103e2f42e4916efeda88d0e511'
p1
aS'https://apnews.com/5f2002103e2f42e4916efeda88d0e511'
p2
aS'https://apnews.com/7d76215423ba4fc58149c7108cdf5ee0'
p3
aS'https://apnews.com/cd3df1fbbeab4cd2a2f18dc6a927b519'
p4
aS'https://apnews.com/169af971be564629bf6f1109ef6558e8'
p5
aS'https://apnews.com/1c049d4541004e16af734dbbef25841a'
p6
aS'https://apnews.com/1960c703ab7d4e8689bcac7d9aa6831f'
p7
aS'https://apnews.com/9b0c6703c7de4dc99b7543266d1eb297'
p8
aS'https://apnews.com/5a385af818f94e48a198dd1836cf2a65'
p9
aS'https://apnews.com/098da0e0d9c64dfeb9e868a043563ac2'
p10
a.