(lp0
S'https://apnews.com/6a9ee55e89474eeba1c0bee3887ae0e6'
p1
aS'https://apnews.com/3602399b00044443883aa2bdef0f1a84'
p2
aS'https://apnews.com/e44a7bc853594ac6a112df80d570c236'
p3
aS'https://apnews.com/6a9ee55e89474eeba1c0bee3887ae0e6'
p4
aS'https://apnews.com/44f506da65034739b0667e5c3d9ca8e8'
p5
aS'https://apnews.com/813b55bfe9b2441fb6f7c0928fdf1684'
p6
aS'https://apnews.com/060ec6b1075e48158a02e3aa5779b991'
p7
aS'https://apnews.com/8c77dc02b5fa44128647dc4a6780d66c'
p8
aS'https://apnews.com/d93549cd90174fec938923152ebc950e'
p9
aS'https://apnews.com/6240d0dd921e4977b5a390607986fe97'
p10
a.