(lp0
S'https://apnews.com/831c5527166f41cd94a1d8ff0a2a62de'
p1
aS'https://apnews.com/15f57921bae74756b4cd4caf698239b3'
p2
aS'https://apnews.com/26808e246e54496c97af9e27c7113b91'
p3
aS'https://apnews.com/a57c040f2e0b4e43a3795d45a9e28310'
p4
aS'https://apnews.com/a2023bd145c14291949bfc121997eb77'
p5
aS'https://apnews.com/84ee30d7a4fa4425bced998b7b3308d7'
p6
aS'https://apnews.com/eeb01886cf1849d98ba041aca419293d'
p7
aS'https://apnews.com/1142790614824255ae9c53ec87eab372'
p8
aS'https://apnews.com/25491645dd254b3fb4b9c67919c30572'
p9
aS'https://apnews.com/45199e24e51040938c10fa1b2e503146'
p10
a.