(lp0
S'https://apnews.com/0e6879d724c54b639ec8dd5f7aaa3598'
p1
aS'https://apnews.com/4bc7fd5712b043a090b49e2c18e614de'
p2
aS'https://apnews.com/0e6879d724c54b639ec8dd5f7aaa3598'
p3
aS'https://apnews.com/4bc7fd5712b043a090b49e2c18e614de'
p4
aS'https://apnews.com/5f4620388c444e59b52bd4542c2af90a'
p5
aS'https://apnews.com/53d1e9a7035c4093b6d5e56917aef2f0'
p6
aS'https://apnews.com/2cbc7b2a39cd49418e14ec43e7e777e8'
p7
aS'https://apnews.com/fddbf43ef47b4366b365a3e2a71c49c2'
p8
aS'https://apnews.com/865c6779fa90457bbb6cb62dc4d54e73'
p9
aS'https://apnews.com/83ecc261074740b2848b61ed9128e890'
p10
a.