(lp0
S'https://apnews.com/ba7430f0a7414f4d8997ad38108d1b7b'
p1
aS'https://apnews.com/3320adc490c14a269cad2d94dbb56561'
p2
aS'https://apnews.com/892513ce11a146b0b0bd88ab17575f78'
p3
aS'https://apnews.com/30713c3381a94058b85dc113568a9eec'
p4
aS'https://apnews.com/0823438f2e4a4b92985778116692848a'
p5
aS'https://apnews.com/18bcda43759844e88f5dfec5d5fd9a78'
p6
aS'https://apnews.com/d112892cf5d24e27b27820bd3c8cb9f4'
p7
aS'https://apnews.com/e498945ad8574091860c92cf984b7ac8'
p8
aS'https://apnews.com/bda49f000b2e47daa76f36d37d31660f'
p9
aS'https://apnews.com/44e54743af174cbbbebf4ab222a707ef'
p10
a.