(lp0
S'https://apnews.com/5341651334024917ad52c0cfa96c3cfd'
p1
aS'https://apnews.com/abb7420d56a840c3bb03d54f0fa8bd79'
p2
aS'https://apnews.com/5341651334024917ad52c0cfa96c3cfd'
p3
aS'https://apnews.com/005e70f70e0b40dd966a4ce15c5150b3'
p4
aS'https://apnews.com/abb7420d56a840c3bb03d54f0fa8bd79'
p5
aS'https://apnews.com/30ec1925f55346eebffd289c68ae6a43'
p6
aS'https://apnews.com/0d8ad50b61e04e698149083c003d84ec'
p7
aS'https://apnews.com/3565eb60e8a84013bd61cecce6e8356e'
p8
aS'https://apnews.com/a318e927c75e4cc9b0dfacd072b1dab2'
p9
aS'https://apnews.com/c44f80b761034a39a7b4de14a8c3c018'
p10
a.