(lp0
S'https://apnews.com/5341651334024917ad52c0cfa96c3cfd'
p1
aS'https://apnews.com/5341651334024917ad52c0cfa96c3cfd'
p2
aS'https://apnews.com/30ec1925f55346eebffd289c68ae6a43'
p3
aS'https://apnews.com/abb7420d56a840c3bb03d54f0fa8bd79'
p4
aS'https://apnews.com/4494b93273fc4626b6c1df781d8ad4f9'
p5
aS'https://apnews.com/d9158ee125e84700b9e2c4dd9555e1ce'
p6
aS'https://apnews.com/381066ff25604ea88991e74a87912053'
p7
aS'https://apnews.com/9da92b673450443bbeaaa270cb919ee9'
p8
aS'https://apnews.com/a674e2864e454e03bc67495c36cca024'
p9
aS'https://apnews.com/b23de277e35f4f679fd21c2023884531'
p10
a.