(lp0
S'https://apnews.com/7ad3fb6bae734bb2a2ce6972796ad440'
p1
aS'https://apnews.com/ea261c0798a54998bafe137ccbb5e33c'
p2
aS'https://apnews.com/8e3be8c7a4094ba7a295528c14027880'
p3
aS'https://apnews.com/c062559c8b3c4b3daad7845b8695ebc8'
p4
aS'https://apnews.com/390f45926b9449a4af1e4cf3b64d6231'
p5
aS'https://apnews.com/59831c4acc584e5a80c059b3b86db3c9'
p6
aS'https://apnews.com/36ad615fe1a44c749ae30362f4f11297'
p7
aS'https://apnews.com/3d8ec25466c647d5924c4b469e0e56bb'
p8
aS'https://apnews.com/d2acf2f24e474f8286736259eb12b884'
p9
aS'https://apnews.com/7ad3fb6bae734bb2a2ce6972796ad440'
p10
a.