(lp0
S'https://apnews.com/ab73f572a6824318a5f7b460ca83b7be'
p1
aS'https://apnews.com/18c6c184693b4fbc87e7817207ba7307'
p2
aS'https://apnews.com/ad15848362c040cd950df45d84e8f721'
p3
aS'https://apnews.com/0870b9d9f0d1457abe3493742d05a1e4'
p4
aS'https://apnews.com/da1f97c260584dbca7a35cedd42efb9e'
p5
aS'https://apnews.com/c9156df13a2649399d3960bb2d5bbe05'
p6
aS'https://apnews.com/8345a10a04bd4c988eed9fd3c7cc8ed7'
p7
aS'https://apnews.com/0b4baa9ec9e34b3cad02a85baa287dd0'
p8
aS'https://apnews.com/0efc7275a05f4304bd5099b6c0313964'
p9
aS'https://apnews.com/a8cc6b52366e4c4eaa616b0e8c06d32f'
p10
a.