(lp0
S'https://apnews.com/a82dab8367c148cca73544edf319cd3a'
p1
aS'https://apnews.com/5af007bd6bd740de83a256398dff4e1d'
p2
aS'https://apnews.com/697536f065e6470eaa5ccfc35061e7ce'
p3
aS'https://apnews.com/a82dab8367c148cca73544edf319cd3a'
p4
aS'https://apnews.com/4d7c4c3448ad4e8781290036cb4a2a71'
p5
aS'https://apnews.com/f2bae05c0bef4816a8cad64da6a18855'
p6
aS'https://apnews.com/95e94ac808634f9c8c2986b297e50e92'
p7
aS'https://apnews.com/9470abd4ea6a4dfbb2c221bc5cc1810d'
p8
aS'https://apnews.com/c4cbc836e89d45c0b7af38d8af2aaaee'
p9
aS'https://apnews.com/60930c4aed1a4677b699e3ef496e297a'
p10
a.