(lp0
S'https://apnews.com/7ad3fb6bae734bb2a2ce6972796ad440'
p1
aS'https://apnews.com/390f45926b9449a4af1e4cf3b64d6231'
p2
aS'https://apnews.com/d2acf2f24e474f8286736259eb12b884'
p3
aS'https://apnews.com/59831c4acc584e5a80c059b3b86db3c9'
p4
aS'https://apnews.com/cfca314fc77548a981a2fa936ad1307d'
p5
aS'https://apnews.com/ea261c0798a54998bafe137ccbb5e33c'
p6
aS'https://apnews.com/7ad3fb6bae734bb2a2ce6972796ad440'
p7
aS'https://apnews.com/82efa6b81e0d4f1c8ae6def489ce8b01'
p8
aS'https://apnews.com/8e3be8c7a4094ba7a295528c14027880'
p9
aS'https://apnews.com/e26b0c8327ee4e00931f6fe96def97a0'
p10
a.