(lp0
S'https://apnews.com/bda49f000b2e47daa76f36d37d31660f'
p1
aS'https://apnews.com/a0d044e1052842bcb3ed1ee71bded9fb'
p2
aS'https://apnews.com/580651f04dde45c6b1a15fd4779fff7a'
p3
aS'https://apnews.com/30713c3381a94058b85dc113568a9eec'
p4
aS'https://apnews.com/4cef63caf6b34cb796bc4c196d47c143'
p5
aS'https://apnews.com/3320adc490c14a269cad2d94dbb56561'
p6
aS'https://apnews.com/46113dc3463a4078a06940499e866ef7'
p7
aS'https://apnews.com/7b88f98d4f8e439484cd4049f0323eeb'
p8
aS'https://apnews.com/fabd905ad3fb4ddfada7f7f76b2d3f71'
p9
aS'https://apnews.com/1d933e40e7a048e4a8914610ade16da9'
p10
a.