(lp0
S'https://apnews.com/a82dab8367c148cca73544edf319cd3a'
p1
aS'https://apnews.com/5af007bd6bd740de83a256398dff4e1d'
p2
aS'https://apnews.com/7cc800728305430dafeb86e76af1fbfc'
p3
aS'https://apnews.com/1e6391fc102b4e9ea56a5050f92cd340'
p4
aS'https://apnews.com/a82dab8367c148cca73544edf319cd3a'
p5
aS'https://apnews.com/697536f065e6470eaa5ccfc35061e7ce'
p6
aS'https://apnews.com/d6a510302bee49aa860e772fd9a20ce3'
p7
aS'https://apnews.com/f2bae05c0bef4816a8cad64da6a18855'
p8
aS'https://apnews.com/2c05ef829e4f4e2590d128b98e9b8c9f'
p9
aS'https://apnews.com/60930c4aed1a4677b699e3ef496e297a'
p10
a.