(lp0
S'https://apnews.com/ef04935b9e6148b6a283d91976d68e50'
p1
aS'https://apnews.com/18e351ef2cc0492897af561c654043a8'
p2
aS'https://apnews.com/e8d26604a2e64a1984b90af45220f7b3'
p3
aS'https://apnews.com/1b77e3a4e5de4da692b4818f85a8028e'
p4
aS'https://apnews.com/2fee1ed3e6e2400bb906048133d94ddf'
p5
aS'https://apnews.com/af97b2c8a4db4f91941bfd67491a8eb0'
p6
aS'https://apnews.com/b22951fbb26340228f6bd8a0c1508b0b'
p7
aS'https://apnews.com/22480d730be54ca49189406478e821e8'
p8
aS'https://apnews.com/f71f37b58c354e119f3c2f6c5b2865d7'
p9
aS'https://apnews.com/51c605a954274aa58a476616765fa178'
p10
a.