(lp0
S'https://apnews.com/b119bd36ed16446cafad9b3a73cdd441'
p1
aS'https://apnews.com/1e6f32b534fc4b7883642a3e58bf547f'
p2
aS'https://apnews.com/975cdb3767654ea8a9f29675c407030d'
p3
aS'https://apnews.com/2cbb8138de3947f0b75cd51db53a0624'
p4
aS'https://apnews.com/bb2d94c5dbf94c75ac5a247bf6082597'
p5
aS'https://apnews.com/65306736e3d846929582227596f9c390'
p6
aS'https://apnews.com/5922c3dd22ea4df39e777c4c2e55aaee'
p7
aS'https://apnews.com/e316440541064b8a9386fa85ae8ffa7b'
p8
aS'https://apnews.com/134576eb8a1b40688fb6bf20aaa0da73'
p9
aS'https://apnews.com/c6b7d61d97ca42d5a4ed79f0f6d65a6f'
p10
a.