(lp0
S'https://apnews.com/b01d27a86b644196ba7081f72eed88d8'
p1
aS'https://apnews.com/b01d27a86b644196ba7081f72eed88d8'
p2
aS'https://apnews.com/32a1fdcfaf2d4239a1be8a26238ff3d8'
p3
aS'https://apnews.com/03c6373075194468939560202bd0aea6'
p4
aS'https://apnews.com/eb33c3a4c388495cbb878d42f0eddf30'
p5
aS'https://apnews.com/1142790614824255ae9c53ec87eab372'
p6
aS'https://apnews.com/17aeac60f57948a0b3f2c450c39d1dba'
p7
aS'https://apnews.com/f7217834344440f09d8e010801047aa4'
p8
aS'https://apnews.com/103f352d33164479a89b9b46442259ef'
p9
aS'https://apnews.com/ba796f45a25a48e39ab3c068af3af004'
p10
a.