(lp0
S'https://www.bloomberg.com/news/articles/2017-10-01/rajoy-says-catalan-ballot-is-void-defending-police-crackdown'
p1
aS'https://www.bloomberg.com/news/articles/2017-10-01/cohn-says-repatriation-tax-rate-will-be-in-10-percent-range'
p2
aS'https://www.bloomberg.com/news/articles/2017-10-01/mnuchin-says-tax-reforms-aimed-squarely-at-middle-class-cuts'
p3
aS'https://www.bloomberg.com/news/articles/2017-10-01/trump-to-tillerson-save-your-energy-on-north-korea-outreach'
p4
aS'https://www.bloomberg.com/news/articles/2017-10-01/corker-stands-by-comments-about-trump-stability-competence'
p5
aS'https://www.bloomberg.com/view/articles/2017-10-01/trump-s-new-puerto-rico-tweets-in-same-old-war'
p6
aS'https://www.bloomberg.com/news/articles/2017-10-01/trump-hits-hurricane-ingrates-as-aide-plans-upbeat-media-blitz'
p7
aS'https://www.bloomberg.com/news/articles/2017-10-01/disney-altice-in-preliminary-deal-to-keep-espn-for-new-yorkers'
p8
aS'https://www.bloomberg.com/news/articles/2017-10-01/oil-market-stars-risk-being-dimmed-by-giant-version-2-0-in-china'
p9
aS'https://www.bloomberg.com/news/articles/2017-10-01/recession-or-not-this-data-may-disappoint-saudi-policy-makers'
p10
a.