(lp0
S'https://www.bloomberg.com/news/articles/2017-09-27/trump-calls-20-corporate-tax-rate-in-plan-a-perfect-number-j83e69me'
p1
aS'https://www.bloomberg.com/news/articles/2017-09-27/lynn-tilton-wins-sec-trial-she-d-worked-hard-to-avoid'
p2
aS'https://www.bloomberg.com/news/articles/2017-09-27/equifax-will-offer-free-credit-freezes-for-life-new-ceo-says'
p3
aS'https://www.bloomberg.com/news/articles/2017-09-27/a-1920-law-crimps-puerto-rico-s-sea-access-when-it-s-needed-most'
p4
aS'https://www.bloomberg.com/news/articles/2017-09-27/trump-looking-very-closely-at-firing-health-secretary'
p5
aS'https://www.bloomberg.com/news/articles/2017-09-27/investors-save-quibbles-for-later-as-stocks-catch-tax-cut-fever'
p6
aS'https://www.bloomberg.com/news/articles/2017-09-27/fda-approves-first-finger-prick-free-device-for-diabetics'
p7
aS'https://www.bloomberg.com/news/articles/2017-09-27/zuckerberg-argues-back-after-trump-tweets-about-facebook-bias'
p8
aS'https://www.bloomberg.com/news/articles/2017-09-27/uber-softbank-deal-is-said-to-ensure-limits-on-kalanick-s-power'
p9
aS'https://www.bloomberg.com/news/articles/2017-09-27/amazon-girds-for-apple-google-competition-in-home-devices-push'
p10
a.