(lp0
S'https://www.bloomberg.com/news/articles/2017-09-29/trump-mnuchin-are-said-to-meet-with-warsh-to-discuss-fed-chair'
p1
aS'https://www.bloomberg.com/news/features/2017-09-29/the-equifax-hack-has-all-the-hallmarks-of-state-sponsored-pros'
p2
aS'https://www.bloomberg.com/news/articles/2017-09-29/ap-sources-us-urges-no-travel-to-cuba-cuts-embassy-staff'
p3
aS'https://www.bloomberg.com/news/articles/2017-09-29/tax-reform-could-open-up-a-huge-loophole-for-wealthy-americans'
p4
aS'https://www.bloomberg.com/news/articles/2017-09-29/new-official-travel-revelations-add-to-white-house-headaches'
p5
aS'https://www.bloomberg.com/news/articles/2017-09-29/puerto-ricans-hack-through-a-maze-of-debris-to-move-relief-aid'
p6
aS'https://www.bloomberg.com/news/articles/2017-09-29/uaw-alleges-nissan-surveils-workers-at-plant-where-union-failed'
p7
aS'https://www.bloomberg.com/news/articles/2017-09-29/p-g-ceo-blasts-nelson-peltz-as-tensions-over-board-vote-mount'
p8
aS'https://www.bloomberg.com/news/articles/2017-09-29/cryptocurrencies-drop-as-south-korea-bans-icos-margin-trading'
p9
aS'https://www.bloomberg.com/news/articles/2017-09-29/softbank-plots-deals-to-build-300-billion-asset-management-arm'
p10
a.