(lp0
S'https://www.bloomberg.com/news/articles/2017-09-28/mountains-of-aid-languish-on-docks-in-storm-stricken-san-juan'
p1
aS'https://www.bloomberg.com/news/articles/2017-09-28/mandatory-union-fees-again-draw-u-s-supreme-court-scrutiny'
p2
aS'https://www.bloomberg.com/view/articles/2017-09-28/jeff-sessions-has-a-point-about-free-speech'
p3
aS'https://www.bloomberg.com/news/articles/2017-09-28/bannon-s-back-and-targeting-china'
p4
aS'https://www.bloomberg.com/news/articles/2017-09-27/bonds-slide-as-dollar-climbs-on-tax-plan-economy-markets-wrap'
p5
aS'https://www.bloomberg.com/news/articles/2017-09-28/airlines-suffer-worldwide-delays-as-amadeus-booking-system-fails'
p6
aS'https://www.bloomberg.com/news/articles/2017-09-28/upending-digital-currency-market-is-next-act-for-ex-virtu-trader'
p7
aS'https://www.bloomberg.com/news/articles/2017-09-28/trump-s-tax-cuts-seen-producing-short-job-growth-sugar-high'
p8
aS'https://www.bloomberg.com/news/articles/2017-09-28/investors-expect-stock-market-correction-and-fear-for-retirement'
p9
aS'https://www.bloomberg.com/news/articles/2017-09-28/donald-trump-vs-pro-football-is-a-ratings-game-the-nfl-can-t-win'
p10
a.