(lp0
S'https://www.bloomberg.com/news/articles/2017-09-30/catalans-reach-referendum-day-uncertain-if-they-ll-get-to-vote'
p1
aS'https://www.bloomberg.com/news/articles/2017-10-01/trump-s-change-of-heart-puts-1-trillion-building-plan-in-limbo'
p2
aS'https://www.bloomberg.com/news/articles/2017-09-28/bannon-s-back-and-targeting-china'
p3
aS'https://www.bloomberg.com/news/articles/2017-09-29/trump-defends-response-to-historic-puerto-rico-storm-damage'
p4
aS'https://www.bloomberg.com/news/articles/2017-10-01/derided-by-trump-iran-nuclear-deal-may-fetch-nobel-peace-prize'
p5
aS'https://www.bloomberg.com/news/articles/2017-09-30/carmakers-rush-to-put-saudi-women-behind-wheels-of-their-models'
p6
aS'https://www.bloomberg.com/news/articles/2017-09-30/u-s-government-talks-directly-with-north-korea-tillerson-says'
p7
aS'https://www.bloomberg.com/news/articles/2017-10-01/urgent-official-oj-simpson-freed-from-nevada-prison-after-9-years'
p8
aS'https://www.bloomberg.com/news/articles/2017-09-27/how-to-build-a-60-million-art-trove-while-staying-withinyour-means'
p9
aS'https://www.bloomberg.com/news/articles/2017-09-30/price-s-ouster-leaves-void-in-white-house-s-health-care-struggle'
p10
a.