(lp0
S'https://www.bloomberg.com/news/articles/2017-09-25/trump-tax-plan-said-to-cut-taxes-for-wealthy-and-whack-ny-and-nj'
p1
aS'https://www.bloomberg.com/news/articles/2017-09-25/gop-revises-obamacare-repeal-with-bill-headed-to-likely-defeat'
p2
aS'https://www.bloomberg.com/news/features/2017-09-25/in-world-s-hottest-oil-patch-jitters-mount-that-a-bust-is-near'
p3
aS'https://www.bloomberg.com/news/articles/2017-09-25/trump-s-nfl-anthem-crusade-angers-billionaire-campaign-donors'
p4
aS'https://www.bloomberg.com/news/articles/2017-09-25/iphone-disappointment-hammers-suppliers-fuels-taiwan-outflows'
p5
aS'https://www.bloomberg.com/news/articles/2017-09-25/jpmorgan-says-fomc-triple-play-makes-shorting-notes-dangerous'
p6
aS'https://www.bloomberg.com/news/articles/2017-09-25/equifax-s-massive-hack-has-a-tiny-silver-lining'
p7
aS'https://www.bloomberg.com/view/articles/2017-09-24/famous-last-words-trump-is-becoming-presidential'
p8
aS'https://www.bloomberg.com/graphics/2017-germany-post-election-analysis/'
p9
aS'https://www.bloomberg.com/news/articles/2017-09-25/springsteen-tickets-hit-10-000-and-wall-street-gets-scalped'
p10
a.