(lp0
S'https://www.bloomberg.com/news/articles/2017-09-28/trump-authorizes-jones-act-waiver-for-puerto-rico-shipments'
p1
aS'https://www.bloomberg.com/news/articles/2017-09-28/bannon-s-back-and-targeting-china'
p2
aS'https://www.bloomberg.com/view/articles/2017-09-28/jeff-sessions-has-a-point-about-free-speech'
p3
aS'https://www.bloomberg.com/news/articles/2017-09-28/u-s-second-quarter-growth-revised-upward-to-3-1-annual-pace'
p4
aS'https://www.bloomberg.com/news/articles/2017-09-28/trump-s-tax-cuts-seen-producing-short-job-growth-sugar-high'
p5
aS'https://www.bloomberg.com/news/articles/2017-09-28/five-things-you-need-to-know-to-start-your-day'
p6
aS'https://www.bloomberg.com/news/articles/2017-09-28/here-s-where-the-most-millionaires-are-being-minted'
p7
aS'https://www.bloomberg.com/news/articles/2017-09-28/upending-digital-currency-market-is-next-act-for-ex-virtu-trader'
p8
aS'https://www.bloomberg.com/graphics/2017-john-malone/'
p9
aS'https://www.bloomberg.com/news/articles/2017-09-28/hawaii-is-no-1-in-u-s-health-care-west-virginia-ranks-last'
p10
a.