(lp0
S'https://www.bloomberg.com/news/articles/2017-09-26/equifax-ceo-smith-resigns-barros-named-interim-chief-after-hack'
p1
aS'https://www.bloomberg.com/news/articles/2017-09-26/trump-s-state-tax-plan-could-cause-headaches-for-52-republicans'
p2
aS'https://www.bloomberg.com/news/articles/2017-09-26/u-s-announces-crackdown-on-kickbacks-in-college-basketball-j81mv20v'
p3
aS'https://www.bloomberg.com/news/articles/2017-09-26/puerto-ricans-plea-for-aid-from-uncle-sam-we-re-americans-too'
p4
aS'https://www.bloomberg.com/news/articles/2017-09-26/demise-of-obamacare-repeal-shows-how-far-gop-remains-from-goal'
p5
aS'https://www.bloomberg.com/news/articles/2017-09-26/north-korea-may-struggle-to-shoot-u-s-bombers-out-of-the-sky'
p6
aS'https://www.bloomberg.com/news/articles/2017-09-26/mike-novogratz-is-set-for-comeback-with-crytocurrency-hedge-fund'
p7
aS'https://www.bloomberg.com/news/features/2017-09-26/the-oil-ghost-towns-of-texas'
p8
aS'https://www.bloomberg.com/graphics/2017-food-security/'
p9
aS'https://www.bloomberg.com/news/articles/2017-09-26/in-ivanka-s-china-business-ties-shrouded-in-secrecy'
p10
a.