(lp0
S'https://www.buzzfeed.com/mikehayes/we-found-154-incidents-of-college-hate-speech-and-violence'
p1
aS'https://www.buzzfeed.com/hattiesoykan/bilingual'
p2
aS'https://www.buzzfeed.com/benhenry/the-naked-rowers-are-back'
p3
aS'https://www.buzzfeed.com/laurenstrapagiel/ikea-in-halifax-or-dartmouth-or-lets-not-fight-about-it'
p4
aS'https://www.buzzfeed.com/jasminnahar/short-books'
p5
aS'https://www.buzzfeed.com/michellerennex/rip-to-all-my-highlighters'
p6
aS'https://www.buzzfeed.com/bradesposito/getty-images-retouched'
p7
aS'https://www.buzzfeed.com/ishmaeldaro/fake-news-writer-paul-horner-dead-at-38'
p8
aS'https://www.buzzfeed.com/mbvd/hugh-hefner-the-founder-of-playboy-has-died-at-91'
p9
aS'https://www.buzzfeed.com/rosebuchanan/more-than-120000-people-have-fled-their-homes-in-indonesia'
p10
a.