(lp0
S'https://www.buzzfeed.com/hattiesoykan/bilingual'
p1
aS'https://www.buzzfeed.com/delaneystrunk/a-botched-eye-tattoo-left-this-model-partially-bli'
p2
aS'https://www.buzzfeed.com/melissaharrison/first-year-baby-products'
p3
aS'https://www.buzzfeed.com/ishmaeldaro/rob-ford-memorial-stadium'
p4
aS'https://www.buzzfeed.com/kristatorres/this-woman-said-her-company-fired-her-after-her-body'
p5
aS'https://www.buzzfeed.com/kassycho/its-a-tent'
p6
aS'https://www.buzzfeed.com/maryanngeorgantopoulos/morgan-geyser-plea-agreement'
p7
aS'https://www.buzzfeed.com/stephaniemcneal/nom-nom'
p8
aS'https://www.buzzfeed.com/elliewoodward/wild-revelations-in-the-new-kuwtk-trailer'
p9
aS'https://www.buzzfeed.com/eleanorbate/magical-harry-potter-costumes'
p10
a.