(lp0
S'https://www.buzzfeed.com/andrewziegler/savage-grandparents-on-facebook'
p1
aS'https://www.buzzfeed.com/morganmurrell/thirty-things-you-should-know-about-olivia-munn'
p2
aS'https://www.buzzfeed.com/kellyoakes/science-tweets-wow'
p3
aS'https://www.buzzfeed.com/laurenstrapagiel/this-mp-rocked-braids-for-an-epic-speech-about-natural-hair'
p4
aS'https://www.buzzfeed.com/bethanyo465891d03/pack-your-bags-and-well-tell-you-how-you-should-s-wi1h'
p5
aS'https://www.buzzfeed.com/benhenry/damn-pettywise'
p6
aS'https://www.buzzfeed.com/kristatorres/16-questions-we-all-ask-ourselves-every-time-we-shop-at'
p7
aS'https://www.buzzfeed.com/ishmaeldaro/justice-pricing'
p8
aS'https://www.buzzfeed.com/jasminnahar/baking-transformation-photos-that-prove-practic'
p9
aS'https://www.buzzfeed.com/hattiesoykan/honk-if-you-love-your-friends'
p10
a.