(lp0
S'https://www.buzzfeed.com/tabathaleggett/helpful-tips-for-getting-out-of-bed-from-actual-morning'
p1
aS'https://www.buzzfeed.com/benhenry/never-have-i-ever-the-masturbation-edition'
p2
aS'https://www.buzzfeed.com/cassiesmyth/british-headlines-that-will-make-you-say-huh'
p3
aS'https://www.buzzfeed.com/ishmaeldaro/chelsea-manning-barred-from-canada'
p4
aS'https://www.buzzfeed.com/emmacooke24/funniest-celeb-tweets-of-all-time'
p5
aS'https://www.buzzfeed.com/tabathaleggett/if-you-check-xxxx-on-this-list-youre-actually-not-a-nice'
p6
aS'https://www.buzzfeed.com/lorynbrantz/9-comics-about-being-alive'
p7
aS'https://www.buzzfeed.com/laurenstrapagiel/this-mp-rocked-braids-for-an-epic-speech-about-natural-hair'
p8
aS'https://www.buzzfeed.com/juliareinstein/a-twitter-account-stole-this-lesbian-couples-photo'
p9
aS'https://www.buzzfeed.com/ailbhemalone/ached-book-pile-zero'
p10
a.