(lp0
S'https://www.buzzfeed.com/rafaelcapanema/hate-love-hate-love-hate-love'
p1
aS'https://www.buzzfeed.com/tomvellner/it-is-twilight-sparkle-the-nerdy-intellectual'
p2
aS'https://www.buzzfeed.com/brettvergara/oh-heck-its-almost-halloween'
p3
aS'https://www.buzzfeed.com/ishmaeldaro/rob-ford-memorial-stadium'
p4
aS'https://www.buzzfeed.com/jasminnahar/pretend-to-go-stationery-shopping-and-we'
p5
aS'https://www.buzzfeed.com/claudiakoerner/snl-is-back-season-premiere-takes-on-trump-puerto-rico-nfl'
p6
aS'https://www.buzzfeed.com/ryanschocket2/fifteen-people-who-are-so-fucking-fucked'
p7
aS'https://www.buzzfeed.com/stephaniemcneal/nom-nom'
p8
aS'https://www.buzzfeed.com/claudiarosenbaum/oj-simpson-released-from-prison'
p9
aS'https://www.buzzfeed.com/norbertobriceno/lonely-place'
p10
a.