(lp0
S'https://www.buzzfeed.com/hattiesoykan/bilingual'
p1
aS'https://www.buzzfeed.com/delaneystrunk/a-botched-eye-tattoo-left-this-model-partially-bli'
p2
aS'https://www.buzzfeed.com/kassycho/its-a-tent'
p3
aS'https://www.buzzfeed.com/ishmaeldaro/rob-ford-memorial-stadium'
p4
aS'https://www.buzzfeed.com/sophiemckeown4/well-reveal-which-riverdale-character-are-you-bas-30gnl'
p5
aS'https://www.buzzfeed.com/melissaharrison/first-year-baby-products'
p6
aS'https://www.buzzfeed.com/kristatorres/this-woman-said-her-company-fired-her-after-her-body'
p7
aS'https://www.buzzfeed.com/stephaniemcneal/nom-nom'
p8
aS'https://www.buzzfeed.com/maryanngeorgantopoulos/morgan-geyser-plea-agreement'
p9
aS'https://www.buzzfeed.com/kristinharris/celebrity-tweets-you-missed-this-week-9-28'
p10
a.