(lp0
S'https://www.buzzfeed.com/remysmidt/f-cancer-dance'
p1
aS'https://www.buzzfeed.com/mjs538/the-dogs-tho'
p2
aS'https://www.buzzfeed.com/stephenlaconte/kim-kardashian-says-caitlyn-jenner-is-a-liar-and-not-a-good'
p3
aS'https://www.buzzfeed.com/laurenstrapagiel/ikea-in-halifax-or-dartmouth-or-lets-not-fight-about-it'
p4
aS'https://www.buzzfeed.com/michellerennex/liar-liar-hunty'
p5
aS'https://www.buzzfeed.com/mjs538/being-saxy'
p6
aS'https://www.buzzfeed.com/agh/tag-yourself-as-a-shoe-and-well-guess-your-zodiac-sign'
p7
aS'https://www.buzzfeed.com/ishmaeldaro/fake-news-writer-paul-horner-dead-at-38'
p8
aS'https://www.buzzfeed.com/andrewziegler/corny-jokes'
p9
aS'https://www.buzzfeed.com/christianzamora/ellen-page-and-the-kristen-wiig-tattoo'
p10
a.