(lp0
S'https://www.buzzfeed.com/emmacooke24/just-some-wholesome-memes'
p1
aS'https://www.buzzfeed.com/ariellecalderon/halo-top-vegan-ice-cream'
p2
aS'https://www.buzzfeed.com/hattiesoykan/bilingual'
p3
aS'https://www.buzzfeed.com/laurenstrapagiel/ikea-in-halifax-or-dartmouth-or-lets-not-fight-about-it'
p4
aS'https://www.buzzfeed.com/benhenry/the-scariest-wikipedia-pages'
p5
aS'https://www.buzzfeed.com/benhenry/the-naked-rowers-are-back'
p6
aS'https://www.buzzfeed.com/jasminnahar/short-books'
p7
aS'https://www.buzzfeed.com/ishmaeldaro/fake-news-writer-paul-horner-dead-at-38'
p8
aS'https://www.buzzfeed.com/rosebuchanan/these-two-neo-nazi-groups-have-just-been-banned-in-britain'
p9
aS'https://www.buzzfeed.com/michellerennex/rip-to-all-my-highlighters'
p10
a.