(lp0
S'https://www.buzzfeed.com/hattiesoykan/bilingual'
p1
aS'https://www.buzzfeed.com/patricksmith/heres-everything-we-know-about-the-black-death-group-plot'
p2
aS'https://www.buzzfeed.com/benhenry/quote-tweets-are-an-art-form'
p3
aS'https://www.buzzfeed.com/ishmaeldaro/rob-ford-memorial-stadium'
p4
aS'https://www.buzzfeed.com/delaneystrunk/a-botched-eye-tattoo-left-this-model-partially-bli'
p5
aS'https://www.buzzfeed.com/melissaharrison/first-year-baby-products'
p6
aS'https://www.buzzfeed.com/kristatorres/this-woman-said-her-company-fired-her-after-her-body'
p7
aS'https://www.buzzfeed.com/stephaniemcneal/nom-nom'
p8
aS'https://www.buzzfeed.com/rachelellison/this-color-changing-lipstick-is-my-only-beauty-essential'
p9
aS'https://www.buzzfeed.com/kassycho/its-a-tent'
p10
a.