(lp0
S'https://www.buzzfeed.com/kevinsmith/what-to-heck-were-these-folks-thinkin'
p1
aS'https://www.buzzfeed.com/katangus/im-never-going-to-retire'
p2
aS'https://www.buzzfeed.com/tomvellner/it-unfollows'
p3
aS'https://www.buzzfeed.com/ishmaeldaro/rob-ford-memorial-stadium'
p4
aS'https://www.buzzfeed.com/asiawmclain/xx-boss-texts'
p5
aS'https://www.buzzfeed.com/philippjahner/good-boys'
p6
aS'https://www.buzzfeed.com/audreyworboys/ill-never-let-go-jack'
p7
aS'https://www.buzzfeed.com/stephaniemcneal/nom-nom'
p8
aS'https://www.buzzfeed.com/ryanschocket2/this-womans-post-about-being-body-shamed-is-going-viral-and'
p9
aS'https://www.buzzfeed.com/delaneystrunk/rate-these-biscuits-and-well-tell-you-how-flaky-you-are'
p10
a.