(lp0
S'http://www.cnn.com/2017/10/01/politics/trump-tweets-puerto-rico/index.html'
p1
aS'http://www.cnn.com/2017/09/30/us/puerto-rico-responds-to-trump-tweets/index.html'
p2
aS'http://www.cnn.com/videos/us/2017/10/01/maria-cardona-jose-fuentes-puerto-rico-trump-mayor-tweet-newday.cnn'
p3
aS'http://www.cnn.com/2017/09/30/politics/lin-manuel-miranda-donald-trump-puerto-rico-tweets/index.html'
p4
aS'http://www.cnn.com/2017/09/30/us/honore-mayor-trump-cnntv/index.html'
p5
aS'http://www.cnn.com/2017/09/30/opinions/trump-tweet-puerto-ricos-mayor-kayyem-opinion/index.html'
p6
aS'http://www.cnn.com/2017/10/01/us/oj-simpson-released-from-prison/index.html'
p7
aS'http://www.cnn.com/2017/07/18/us/oj-life-in-prison/index.html'
p8
aS'http://www.cnn.com/videos/justice/2017/09/30/oj-simpson-attorney-malcolm-lavergne-vercammen-intv-sot.cnn'
p9
aS'http://www.cnn.com/2017/07/20/us/o-j-simpson-how-we-got-here/index.html'
p10
a.