(lp0
S'http://www.cnn.com/2017/09/29/politics/puerto-rico-hurricane-maria-san-juan-mayor-trump-response/index.html'
p1
aS'http://www.cnn.com/videos/world/2017/09/29/san-juan-mayor-carmen-yulin-cruz-bts-newday.cnn'
p2
aS'http://www.cnn.com/2017/09/29/politics/president-donald-trump-puerto-rico-hurricane-politics/index.html'
p3
aS'http://www.cnn.com/2017/09/29/us/puerto-rico-recovery-updates/index.html'
p4
aS'http://www.cnn.com/2017/09/29/politics/rihanna-donald-trump-puerto-rico/index.html'
p5
aS'http://www.cnn.com/2017/09/29/politics/us-cuba-sonic-attacks-pulls-out-diplomats/index.html'
p6
aS'http://bleacherreport.com/articles/2735772-adam-silver-discusses-anthem-protests-warriors-skipping-white-house-more'
p7
aS'http://bleacherreport.com/articles/2735391-la-sparks-stay-in-locker-room-for-national-anthem-before-game-2-of-wnba-finals'
p8
aS'http://www.cnn.com/2017/09/28/us/air-force-academy-prep-school-racist-slurs/index.html'
p9
aS'http://www.cnn.com/videos/us/2017/09/29/jay-silveria-air-force-academy-cadets-full.youtube-usafaofficial'
p10
a.