(lp0
S'http://www.cnn.com/2017/09/26/politics/trump-nfl-tweets/index.html'
p1
aS'http://www.cnn.com/2017/09/26/politics/trump-nfl-comments-mccain-sessions-private-dinner/index.html'
p2
aS'http://www.cnn.com/2017/09/25/us/nfl-trump-take-knee-protests-cowboys-cardinals/index.html'
p3
aS'http://www.cnn.com/2017/09/26/politics/trump-nfl-ratings-tweet/index.html'
p4
aS'http://bleacherreport.com/articles/2735126-ben-roethlisberger-wishes-steelers-approached-anthem-protest-differently'
p5
aS'http://www.cnn.com/videos/politics/2017/09/24/rex-ryan-trump-nfl-pissed-orig-vstan-dlewis.cnn'
p6
aS'http://www.cnn.com/2017/09/25/opinions/what-trumps-gut-knows-about-the-nfl-controversy-jennings/index.html'
p7
aS'http://www.cnn.com/2017/09/26/politics/health-care-what-next/index.html'
p8
aS'http://www.cnn.com/2017/09/26/politics/sessions-campus-free-speech-protests/index.html'
p9
aS'http://www.cnn.com/videos/politics/2017/09/26/lindsey-graham-mccain-health-care-debate.cnn'
p10
a.