(lp0
S'http://www.cnn.com/2017/10/01/politics/donald-trump-price-hurricane-golf-weekend/index.html'
p1
aS'http://www.cnn.com/2017/10/01/us/oj-simpson-released-from-prison/index.html'
p2
aS'http://www.cnn.com/2017/10/01/europe/catalonia-spain-independence-referendum-vote/index.html'
p3
aS'http://www.cnn.com/2017/10/01/us/puerto-rico-schools-closed-for-weeks/index.html'
p4
aS'http://www.cnn.com/2017/09/30/us/puerto-rico-responds-to-trump-tweets/index.html'
p5
aS'http://www.cnn.com/videos/us/2017/10/01/maria-cardona-jose-fuentes-puerto-rico-trump-mayor-tweet-newday.cnn'
p6
aS'https://lite.cnn.io/en'
p7
aS'http://www.cnn.com/2017/10/01/americas/edmonton-vehicle-attacks-investigation/index.html'
p8
aS'http://www.cnn.com/2017/10/01/europe/marseille-knife-attack-train-station/index.html'
p9
aS'http://www.cnn.com/2017/10/01/americas/air-france-66-a380-engine-failure/index.html'
p10
a.