(lp0
S'http://www.cnn.com/2017/09/28/politics/puerto-rico-governor-white-house-jones-act-waiver/index.html'
p1
aS'http://www.cnn.com/2017/09/27/us/puerto-rico-aid-problem/index.html'
p2
aS'http://money.cnn.com/2017/09/27/news/economy/jones-act-puerto-rico/index.html'
p3
aS'http://www.cnn.com/2017/09/28/us/vieques-cut-off-after-hurricane-maria/index.html'
p4
aS'http://www.cnn.com/videos/us/2017/09/27/russel-honore-trump-puerto-rico-response-sot-burnett-ebof.cnn'
p5
aS'http://money.cnn.com/2017/09/28/news/companies/southwest-hurricanes-costs/index.html'
p6
aS'http://www.cnn.com/2017/09/28/politics/twitter-congress-russia-investigators/index.html'
p7
aS'http://www.cnn.com/2017/09/28/politics/donald-trump-cabinet-taxes/index.html'
p8
aS'http://www.cnn.com/2017/09/27/politics/donald-trump-tax-reform-indianapolis/index.html'
p9
aS'http://www.cnn.com/videos/politics/2017/09/28/trump-alabama-election-health-care-sot-kth-ac.cnn'
p10
a.