(lp0
S'http://money.cnn.com/2017/09/27/news/economy/trump-executive-order-health-care/index.html'
p1
aS'http://www.cnn.com/2017/09/27/politics/donald-trump-tax-reform-indianapolis/index.html'
p2
aS'http://www.cnn.com/videos/politics/2017/09/27/trump-wants-tax-reform-despite-recent-defeats-tsr-dnt-murray.cnn'
p3
aS'http://www.cnn.com/2017/09/27/politics/kevin-brady-tax-reform-interview/index.html'
p4
aS'http://www.cnn.com/videos/politics/2017/09/27/trump-tax-reform-speech-indianapolis-full.cnn'
p5
aS'http://www.cnn.com/2017/09/27/politics/what-happened-mitch-mcconnell/index.html'
p6
aS'http://go.cnn.com'
p7
aS'http://bleacherreport.com/articles/2735557-stephen-curry-says-new-si-cover-is-terrible-for-leaving-off-colin-kaepernick'
p8
aS'http://www.cnn.com/videos/politics/2017/09/27/trump-reporters-wh-nfl-go-to-hell-comments.cnn'
p9
aS'http://www.cnn.com/2017/09/27/politics/donald-trump-nfl-bad-box/index.html'
p10
a.