(lp0
S'http://www.cnn.com/2017/09/25/politics/donald-trump-national-anthem-nascar/index.html'
p1
aS'http://www.cnn.com/2017/09/25/politics/trump-nfl-tweets/index.html'
p2
aS'http://www.cnn.com/interactive/2017/09/us/nfl-anthem-protests-cnnphotos/'
p3
aS'http://www.cnn.com/videos/politics/2017/09/24/rex-ryan-trump-nfl-pissed-orig-vstan-dlewis.cnn'
p4
aS'http://www.cnn.com/2017/09/25/politics/trump-nfl-tweet-four-years-ago-trnd/index.html'
p5
aS'http://money.cnn.com/2017/09/24/media/pro-trump-media-nfl/index.html'
p6
aS'http://www.cnn.com/videos/us/2017/09/25/bob-costas-patriotism-sports-military-flag-politics-sot-newday.cnn'
p7
aS'http://www.cnn.com/2017/09/24/opinions/trump-nfl-american-values-opinion-obeidallah/index.html'
p8
aS'http://www.cnn.com/2017/09/24/politics/revised-graham-cassidy-bill/index.html'
p9
aS'http://www.cnn.com/2017/09/24/politics/trump-travel-restrictions/index.html'
p10
a.