(lp0
S'http://www.cnn.com/2017/09/28/politics/puerto-rico-governor-white-house-jones-act-waiver/index.html'
p1
aS'http://www.cnn.com/2017/09/27/us/puerto-rico-aid-problem/index.html'
p2
aS'http://money.cnn.com/2017/09/27/news/economy/jones-act-puerto-rico/index.html'
p3
aS'http://www.cnn.com/2017/09/28/us/vieques-cut-off-after-hurricane-maria/index.html'
p4
aS'http://www.cnn.com/videos/us/2017/09/27/russel-honore-trump-puerto-rico-response-sot-burnett-ebof.cnn'
p5
aS'http://money.cnn.com/2017/09/28/news/companies/southwest-hurricanes-costs/index.html'
p6
aS'http://edition.cnn.com/2017/09/28/sport/monica-puig-puerto-rico-hurricane-maria-fund-raising/index.html'
p7
aS'http://www.cnn.com/2017/09/28/politics/twitter-congress-russia-investigators/index.html'
p8
aS'http://money.cnn.com/2017/09/27/news/economy/trump-executive-order-health-care/index.html'
p9
aS'http://www.cnn.com/2017/09/28/politics/gorsuch-trump-hotel-speech/index.html'
p10
a.