(lp0
S'http://www.nationalgeographic.com/travel/destinations/south-america/colombia/colombia-tayrona-national-park.html'
p1
aS'http://news.nationalgeographic.com/2017/09/zealandia-continent-tectonic-research-discovery-spd.html'
p2
aS'http://news.nationalgeographic.com/2017/09/climate-change-costs-us-economy-billions-report.html'
p3
aS'http://www.nationalgeographic.com/adventure/destinations/europe/iceland/horseback-ride-iceland-countryside-backcountry-highlands.html'
p4
aS'http://www.nationalgeographic.com/photography/proof/2017/09/puerto-rico-archive-history.html'
p5
aS'http://www.nationalgeographic.com/photography/proof/2017/09/georgia-abkhazia-refugees.html'
p6
aS'http://news.nationalgeographic.com/2017/09/new-giant-rat-species-solomon-islands-vangunu.html'
p7
aS'http://www.nationalgeographic.com/travel/destinations/north-america/united-states/new-mexico/things-to-do-albuquerque-international-balloon-fiesta.html'
p8
aS'http://www.nationalgeographic.com/magazine/2017/10/explore-animals-illegal-pet-trade-slow-loris.html'
p9
aS'http://www.nationalgeographic.com/adventure/destinations/africa/tanzania/cycling-bike-trip-tanzania-safari-national-parks.html'
p10
a.