(lp0
S'http://news.nationalgeographic.com/2017/10/skywatching-guide-october-uranus-meteors-moon-space-science.html'
p1
aS'http://news.nationalgeographic.com/news/2013/09/animals-sex-reproduction-age-mating.html'
p2
aS'http://news.nationalgeographic.com/2017/09/dinosaurs-matter-paleontology-science-kenneth-lacovara.html'
p3
aS'http://news.nationalgeographic.com/2017/09/nude-mona-lisa-monna-vanna-da-vinci.html'
p4
aS'http://news.nationalgeographic.com/2017/09/rohingya-refugee-crisis-myanmar-burma-spd.html'
p5
aS'http://news.nationalgeographic.com/2015/10/151005-ten-science-discovery-without-nobel.html'
p6
aS'http://news.nationalgeographic.com/2017/09/feral-cat-washington-dogs-rat-control.html'
p7
aS'http://www.nationalgeographic.com/travel/destinations/asia/israel/jerusalem/best-destinations-religion-walking-neighborhoods.html'
p8
aS'http://www.nationalgeographic.com/adventure/destinations/united-states/hawaii/couples-partner-heart-racing-thrilling-hawaiian-adventures.html'
p9
aS'http://news.nationalgeographic.com/2017/09/pokemon-pikachu-spider-honduras-spd.html'
p10
a.