(lp0
S'http://www.nationalgeographic.com/photography/proof/2017/09/pet-snakes-russia.html'
p1
aS'http://news.nationalgeographic.com/2017/09/elon-musk-spacex-mars-moon-bfr-rockets-space-science.html'
p2
aS'http://news.nationalgeographic.com/2017/09/nike-two-hour-marathon-barrier.html'
p3
aS'http://news.nationalgeographic.com/2017/09/poison-frogs-toxins-venoms-resistance-animals.html'
p4
aS'http://www.nationalgeographic.com/travel/lists/cave-art-archeology-france-spain-portugal.html'
p5
aS'http://www.nationalgeographic.com/travel/destinations/asia/china/hong-kong/tai-hang-fire-dragon-dance.html'
p6
aS'http://news.nationalgeographic.com/2017/09/fatal-rockslide-yosemite-park-geology-spd.html'
p7
aS'http://www.nationalgeographic.com/adventure/destinations/europe/france/ride-cable-car-mont-blanc-tallest-peak.html'
p8
aS'http://www.nationalgeographic.com/photography/proof/2017/09/naomi-harris-culture-swap.html'
p9
aS'http://www.nationalgeographic.com/magazine/2017/10/explore-animals-famous-names-heteropoda-david-bowie-spider.html'
p10
a.