(lp0
S'http://www.nationalgeographic.com/archaeology-and-history/magazine/2017/09-10/roman-mock-naval-sea-battles-naumachia.html'
p1
aS'http://www.nationalgeographic.com/magazine/2017/10/editors-note-sustainability-dubai-green-cities.html'
p2
aS'http://news.nationalgeographic.com/2017/09/china-lake-colorful-algae-spd.html'
p3
aS'http://news.nationalgeographic.com/2017/09/monkey-cannibalism-mother-eats-baby.html'
p4
aS'http://www.nationalgeographic.com/travel/features/smart-cities/main-street-makeover.html'
p5
aS'http://news.nationalgeographic.com/2017/09/copperhead-snake-bites-venom-spd.html'
p6
aS'http://news.nationalgeographic.com/2017/09/vegetative-state-vagus-nerve-stimulation-health-science.html'
p7
aS'http://www.nationalgeographic.com/photography/proof/2017/08/omo-dam-ethiopia-kenya-photographs.html'
p8
aS'http://news.nationalgeographic.com/2017/09/montreal-protocol-ozone-treaty-30-climate-change-hcfs-hfcs.html'
p9
aS'http://www.nationalgeographic.com/photography/proof/2017/09/exclusive-photos-capture-destruction-across-puerto-rico.html'
p10
a.