(lp0
S'http://news.nationalgeographic.com/2017/09/montreal-protocol-ozone-treaty-30-climate-change-hcfs-hfcs.html'
p1
aS'http://www.nationalgeographic.com/photography/proof/2017/09/exclusive-photos-capture-destruction-across-puerto-rico.html'
p2
aS'http://news.nationalgeographic.com/2017/09/knights-templar-crusades-dan-jones.html'
p3
aS'http://news.nationalgeographic.com/2017/09/animals-lizards-reptiles-blood-eyes.html'
p4
aS'http://news.nationalgeographic.com/2017/09/mexico-earthquake-geology-liquefaction-video-spd.html'
p5
aS'http://news.nationalgeographic.com/2017/09/wwi-uboat-shipwreck-discovery-video-spd.html'
p6
aS'http://news.nationalgeographic.com/2017/09/white-whale-migaloo-video-australia-spd.html'
p7
aS'http://www.nationalgeographic.com/adventure/features/how-to-survive-natural-disaster-storm-hurricane-expert-tips.html'
p8
aS'http://news.nationalgeographic.com/2015/09/150922-equinox-autumn-seasons-sun-moon-space-science.html'
p9
aS'http://news.nationalgeographic.com/2017/09/dead-feral-pig-science-ecology.html'
p10
a.