(lp0
S'http://nymag.com/daily/intelligencer/2017/09/the-strangely-normal-exit-of-tom-price.html'
p1
aS'http://nymag.com/daily/intelligencer/2017/09/worrying-about-puerto-rico-from-afar.html'
p2
aS'http://www.vulture.com/2017/09/will-and-grace-best-trump-joke-is-its-setting.html'
p3
aS'http://www.vulture.com/2017/09/review-miley-cyrus-younger-now.html'
p4
aS'http://www.vulture.com/2017/09/blade-runner-2049-cant-match-its-predecessor.html'
p5
aS'http://www.vulture.com/2017/09/handbook-for-mortals-lani-sarem-23-hour-new-york-times-bestseller.html'
p6
aS'http://nymag.com/daily/intelligencer/2017/09/dont-be-fooled-by-saudi-arabias-plan-to-let-women-drive.html'
p7
aS'https://www.thecut.com/2017/09/10-best-guardian-experience-columns.html'
p8
aS'https://www.thecut.com/2017/09/video-the-long-nail-goddesses-of-newark-new-jersey.html'
p9
aS'http://nymag.com/selectall/2017/09/the-best-wireless-chargers-for-iphone-8-and-iphone-x.html'
p10
a.