(lp0
S'http://nymag.com/daily/intelligencer/2017/09/a-look-at-trumps-trillion-dollar-blue-state-tax-hike.html'
p1
aS'http://nymag.com/daily/intelligencer/2017/09/nfl-protests-obscure-the-facts-on-race-and-policing.html'
p2
aS'http://www.vulture.com/2017/09/will-and-grace-best-trump-joke-is-its-setting.html'
p3
aS'http://www.vulture.com/2017/09/the-good-place-food-puns-dance-dance-resolution.html'
p4
aS'http://www.vulture.com/2017/09/curb-your-enthusiasm-every-episode-ranked.html'
p5
aS'http://nymag.com/daily/intelligencer/2017/09/the-berniecrats-have-an-obama-problem.html'
p6
aS'http://www.vulture.com/2017/09/dc-wonder-woman-movie-strategy-universe.html'
p7
aS'http://www.grubstreet.com/2017/09/gavin-kaysen-grub-street-diet.html'
p8
aS'http://nymag.com/strategist/article/adriana-lima-travel-essentials.html'
p9
aS'http://www.vulture.com/2017/09/whats-new-on-netflix-october-2017.html'
p10
a.