(lp0
S'http://nymag.com/daily/intelligencer/2017/09/the-trump-tax-cuts-are-going-to-hurt-the-republican-party.html'
p1
aS'http://nymag.com/daily/intelligencer/2017/09/what-to-make-of-moore-winning-alabamas-gop-senate-primary.html'
p2
aS'http://nymag.com/daily/intelligencer/2017/09/democrat-doug-jones-has-a-shot-at-upsetting-roy-moore.html'
p3
aS'http://nymag.com/daily/intelligencer/2017/09/roy-moore-lets-republicans-choose-authoritarianism-again.html'
p4
aS'http://nymag.com/daily/intelligencer/2017/09/frank-rich-roy-moore-and-the-trumpist-takeover-of-the-gop.html'
p5
aS'https://www.thecut.com/2017/09/elizabeth-warren-hillary-clinton-sexism.html'
p6
aS'http://nymag.com/daily/intelligencer/2017/09/is-trump-hurting-puerto-rico-to-help-the-shipping-industry.html'
p7
aS'https://www.thecut.com/2017/09/me-lady-gaga-and-the-doctors-that-failed-us-both.html'
p8
aS'https://www.thecut.com/2017/09/real-housewives-pointing-fingers-laura-collins-thnk1994-art.html'
p9
aS'http://www.vulture.com/2017/09/will-and-grace-review.html'
p10
a.