(lp0
S'http://nymag.com/daily/intelligencer/2017/09/playboy-founder-hugh-hefner-dead-at-91.html'
p1
aS'http://nymag.com/daily/intelligencer/2017/09/the-trump-tax-cuts-are-going-to-hurt-the-republican-party.html'
p2
aS'http://www.vulture.com/2017/09/youre-the-worst-recap-season-4-episode-5.html'
p3
aS'http://www.vulture.com/2017/09/empire-season-4-premiere-recap.html'
p4
aS'http://www.vulture.com/2017/09/broad-city-recap-season-4-episode-3.html'
p5
aS'https://www.thecut.com/2017/09/elizabeth-warren-hillary-clinton-sexism.html'
p6
aS'https://www.thecut.com/2017/09/how-all-doctors-should-be.html'
p7
aS'http://www.grubstreet.com/2017/09/new-bar-snacks-in-nyc.html'
p8
aS'https://www.thecut.com/2017/09/cool-eyeliner-tips-and-other-weird-beauty-inspiration.html'
p9
aS'https://www.thecut.com/2017/09/to-get-better-at-understanding-others-start-with-yourself.html'
p10
a.