(lp0
S'http://nymag.com/daily/intelligencer/2017/09/roger-stone-eve-russia-testimony.html'
p1
aS'http://nymag.com/daily/intelligencer/2017/09/alabama-preview-a-strange-struggle-in-a-pro-trump-state.html'
p2
aS'http://www.vulture.com/2017/09/theater-an-ultra-male-female-directed-clockwork-orange.html'
p3
aS'http://www.vulture.com/2017/09/victoria-and-abdul-bears-a-passing-resemblance-to-a-good-movie.html'
p4
aS'http://www.vulture.com/2017/09/super-size-me-2-you-may-never-be-able-to-eat-chicken-again.html'
p5
aS'http://nymag.com/daily/intelligencer/2017/09/wait-are-we-at-war-with-north-korea-now.html'
p6
aS'http://www.vulture.com/2017/09/will-ben-stillers-characters-ever-grow-up.html'
p7
aS'https://www.thecut.com/2017/09/what-the-heck-happened-to-my-body-during-reiki.html'
p8
aS'https://www.thecut.com/2017/09/photos-schiaparelli-and-the-artists.html'
p9
aS'https://www.thecut.com/2017/09/when-anxiety-feels-more-physical-than-mental.html'
p10
a.