(lp0
S'http://nymag.com/daily/intelligencer/2017/09/we-know-a-lot-and-nothing-about-what-mueller-is-doing.html'
p1
aS'http://nymag.com/daily/intelligencer/2017/09/how-trump-bungled-the-politics-of-football.html'
p2
aS'http://www.vulture.com/2017/09/ray-donovan-recap-season-5-episode-7.html'
p3
aS'http://www.vulture.com/2017/09/vice-principals-recap-season-2-episode-2.html'
p4
aS'http://www.vulture.com/2017/09/the-deuce-recap-season-1-episode-3.html'
p5
aS'http://nymag.com/daily/intelligencer/2017/09/is-angela-merkel-still-the-leader-of-the-free-world.html'
p6
aS'http://www.vulture.com/2017/09/star-trek-discovery-review.html'
p7
aS'https://www.thecut.com/2017/09/lisa-ling-interview-how-i-get-it-done.html'
p8
aS'https://www.thecut.com/2017/09/atlas-of-beauty-captures-portraits-of-women-around-world.html'
p9
aS'http://www.grubstreet.com/article/metta-nyc-restaurant-review.html'
p10
a.