(lp0
S'http://nymag.com/daily/intelligencer/2017/10/how-puerto-rico-struggled-to-communicate-after-maria.html'
p1
aS'http://nymag.com/daily/intelligencer/2017/09/the-strangely-normal-exit-of-tom-price.html'
p2
aS'http://www.vulture.com/2017/10/snl-recap-season-43-premiere-ryan-gosling.html'
p3
aS'http://www.vulture.com/2017/10/saturday-night-live-ryan-gosling-uncovers-avatar-conspiracy.html'
p4
aS'http://www.vulture.com/2017/10/snl-alec-baldwins-trump-gets-puerto-rico-on-the-phone.html'
p5
aS'http://www.vulture.com/2017/09/handbook-for-mortals-lani-sarem-23-hour-new-york-times-bestseller.html'
p6
aS'http://nymag.com/daily/intelligencer/2017/09/dont-be-fooled-by-saudi-arabias-plan-to-let-women-drive.html'
p7
aS'https://www.thecut.com/2017/09/10-best-guardian-experience-columns.html'
p8
aS'https://www.thecut.com/2017/09/video-the-long-nail-goddesses-of-newark-new-jersey.html'
p9
aS'http://nymag.com/selectall/2017/09/the-best-wireless-chargers-for-iphone-8-and-iphone-x.html'
p10
a.