(lp0
S'https://www.nytimes.com/2017/09/13/opinion/faith-law-and-dianne-feinstein.html'
p1
aS'https://www.nytimes.com/2017/09/13/opinion/your-social-security-number-isnt-a-secret.html'
p2
aS'https://www.nytimes.com/2017/09/13/opinion/democracy-endangered.html'
p3
aS'https://www.nytimes.com/2017/09/13/opinion/campus-rape-devos-title-ix.html'
p4
aS'https://www.nytimes.com/2017/09/13/opinion/edie-windsor-gay-rights.html'
p5
aS'https://www.nytimes.com/2017/09/13/opinion/pakistan-wont-let-terrorist-organizations-contest-elections-for-now.html'
p6
aS'https://www.nytimes.com/2017/09/13/opinion/venezuela-married-leopoldo-lopez.html'
p7
aS'https://www.nytimes.com/2017/09/13/opinion/strongman-world-democracy.html'
p8
aS'https://www.nytimes.com/2017/09/13/opinion/chelsea-manning-big-data-dystopia.html'
p9
aS'https://www.nytimes.com/2017/09/13/opinion/north-korea-nuclear-weapons-japan.html'
p10
aS'https://www.nytimes.com/2017/09/13/opinion/trump-bad-iran-deal.html'
p11
aS'https://www.nytimes.com/2017/09/13/opinion/gauri-lankesh-india-dead.html'
p12
aS'https://www.nytimes.com/2017/09/13/opinion/sisters-murder-darfur-daoud-hari.html'
p13
aS'https://www.nytimes.com/2017/09/13/opinion/berkeley-dean-erwin-chemerinsky.html'
p14
aS'https://www.nytimes.com/2017/09/13/opinion/nazis-holocaust-disabled.html'
p15
aS'https://www.nytimes.com/2017/09/13/opinion/cloudflare-daily-stormer-charlottesville.html'
p16
aS'https://www.nytimes.com/2017/09/13/opinion/bernie-sanders-medicare-single-payer.html'
p17
aS'https://www.nytimes.com/2017/09/12/opinion/irma-virgin-islands-damage.html'
p18
aS'https://www.nytimes.com/2017/09/12/opinion/when-junk-science-about-sex-offenders-infects-the-supreme-court.html'
p19
aS'https://www.nytimes.com/2017/09/12/opinion/conservative-berkeley-ben-shapiro.html'
p20
aS'https://www.nytimes.com/2017/09/13/opinion/faith-law-and-dianne-feinstein.html'
p21
aS'https://www.nytimes.com/2017/09/13/opinion/your-social-security-number-isnt-a-secret.html'
p22
aS'https://www.nytimes.com/2017/09/13/opinion/democracy-endangered.html'
p23
aS'https://www.nytimes.com/2017/09/13/opinion/campus-rape-devos-title-ix.html'
p24
aS'https://www.nytimes.com/2017/09/13/opinion/edie-windsor-gay-rights.html'
p25
aS'https://www.nytimes.com/2017/09/13/opinion/pakistan-wont-let-terrorist-organizations-contest-elections-for-now.html'
p26
aS'https://www.nytimes.com/2017/09/13/opinion/venezuela-married-leopoldo-lopez.html'
p27
aS'https://www.nytimes.com/2017/09/13/opinion/strongman-world-democracy.html'
p28
aS'https://www.nytimes.com/2017/09/13/opinion/chelsea-manning-big-data-dystopia.html'
p29
aS'https://www.nytimes.com/2017/09/13/opinion/north-korea-nuclear-weapons-japan.html'
p30
aS'https://www.nytimes.com/2017/09/13/opinion/trump-bad-iran-deal.html'
p31
aS'https://www.nytimes.com/2017/09/13/opinion/gauri-lankesh-india-dead.html'
p32
aS'https://www.nytimes.com/2017/09/13/opinion/sisters-murder-darfur-daoud-hari.html'
p33
aS'https://www.nytimes.com/2017/09/13/opinion/berkeley-dean-erwin-chemerinsky.html'
p34
aS'https://www.nytimes.com/2017/09/13/opinion/nazis-holocaust-disabled.html'
p35
aS'https://www.nytimes.com/2017/09/13/opinion/cloudflare-daily-stormer-charlottesville.html'
p36
aS'https://www.nytimes.com/2017/09/13/opinion/bernie-sanders-medicare-single-payer.html'
p37
aS'https://www.nytimes.com/2017/09/12/opinion/irma-virgin-islands-damage.html'
p38
aS'https://www.nytimes.com/2017/09/12/opinion/when-junk-science-about-sex-offenders-infects-the-supreme-court.html'
p39
aS'https://www.nytimes.com/2017/09/12/opinion/conservative-berkeley-ben-shapiro.html'
p40
a.