(lp0
S'https://www.nytimes.com/2017/09/27/opinion/saudi-arabia-women-driving-.html'
p1
aS'https://www.nytimes.com/2017/09/27/opinion/alabama-roy-moore-establishment.html'
p2
aS'https://www.nytimes.com/2017/09/27/opinion/alt-right-neo-nazis.html'
p3
aS'https://www.nytimes.com/2017/09/27/opinion/military-support-kaepernick.html'
p4
aS'https://www.nytimes.com/2017/09/27/opinion/iraq-kurds-independence.html'
p5
aS'https://www.nytimes.com/2017/09/27/opinion/turkey-syrian-refugees.html'
p6
aS'https://www.nytimes.com/2017/09/27/opinion/online-dating-disability.html'
p7
aS'https://www.nytimes.com/2017/09/27/opinion/how-big-banks-became-our-masters.html'
p8
aS'https://www.nytimes.com/2017/09/26/opinion/contributors/valerie-plame-antisemitic-state-department.html'
p9
aS'https://www.nytimes.com/2017/09/26/opinion/facebook-free-basics.html'
p10
aS'https://www.nytimes.com/2017/09/26/opinion/murder-rate-crime.html'
p11
aS'https://www.nytimes.com/2017/09/26/opinion/nyu-abu-dhabi.html'
p12
aS'https://www.nytimes.com/2017/09/26/opinion/courts-that-save-opioid-victims-family-life.html'
p13
aS'https://www.nytimes.com/2017/09/26/opinion/frats-college-partying-pledging.html'
p14
aS'https://www.nytimes.com/2017/09/26/opinion/do-republicans-really-care-about-the-deficit.html'
p15
aS'https://www.nytimes.com/2017/09/26/opinion/fighting-malaria-mekong.html'
p16
aS'https://www.nytimes.com/2017/09/26/opinion/vietnam-tiger-force-atrocities.html'
p17
aS'https://www.nytimes.com/2017/09/25/opinion/hurricane-puerto-rico-jones-act.html'
p18
aS'https://www.nytimes.com/2017/09/25/opinion/weiner-sexting-sentencing-prison.html'
p19
aS'https://www.nytimes.com/2017/09/25/opinion/trump-electoral-college-minority.html'
p20
aS'https://www.nytimes.com/2017/09/27/opinion/saudi-arabia-women-driving-.html'
p21
aS'https://www.nytimes.com/2017/09/27/opinion/alabama-roy-moore-establishment.html'
p22
aS'https://www.nytimes.com/2017/09/27/opinion/alt-right-neo-nazis.html'
p23
aS'https://www.nytimes.com/2017/09/27/opinion/military-support-kaepernick.html'
p24
aS'https://www.nytimes.com/2017/09/27/opinion/iraq-kurds-independence.html'
p25
aS'https://www.nytimes.com/2017/09/27/opinion/turkey-syrian-refugees.html'
p26
aS'https://www.nytimes.com/2017/09/27/opinion/online-dating-disability.html'
p27
aS'https://www.nytimes.com/2017/09/27/opinion/how-big-banks-became-our-masters.html'
p28
aS'https://www.nytimes.com/2017/09/26/opinion/contributors/valerie-plame-antisemitic-state-department.html'
p29
aS'https://www.nytimes.com/2017/09/26/opinion/facebook-free-basics.html'
p30
aS'https://www.nytimes.com/2017/09/26/opinion/murder-rate-crime.html'
p31
aS'https://www.nytimes.com/2017/09/26/opinion/nyu-abu-dhabi.html'
p32
aS'https://www.nytimes.com/2017/09/26/opinion/courts-that-save-opioid-victims-family-life.html'
p33
aS'https://www.nytimes.com/2017/09/26/opinion/frats-college-partying-pledging.html'
p34
aS'https://www.nytimes.com/2017/09/26/opinion/do-republicans-really-care-about-the-deficit.html'
p35
aS'https://www.nytimes.com/2017/09/26/opinion/fighting-malaria-mekong.html'
p36
aS'https://www.nytimes.com/2017/09/26/opinion/vietnam-tiger-force-atrocities.html'
p37
aS'https://www.nytimes.com/2017/09/25/opinion/hurricane-puerto-rico-jones-act.html'
p38
aS'https://www.nytimes.com/2017/09/25/opinion/weiner-sexting-sentencing-prison.html'
p39
aS'https://www.nytimes.com/2017/09/25/opinion/trump-electoral-college-minority.html'
p40
a.