(lp0
S'https://www.nytimes.com/2017/09/30/opinion/erick-erickson-common-ground.html'
p1
aS'https://www.nytimes.com/2017/09/30/opinion/sunday/catholics-nigeria-traditional-mass.html'
p2
aS'https://www.nytimes.com/2017/09/30/opinion/sunday/alabama-moore-trump-divisions.html'
p3
aS'https://www.nytimes.com/2017/09/30/opinion/sunday/cubs-baseball-trump.html'
p4
aS'https://www.nytimes.com/2017/09/30/opinion/sunday/bipolar-medication-depakote-lithium-.html'
p5
aS'https://www.nytimes.com/2017/09/30/opinion/sunday/adjunct-professors-politics.html'
p6
aS'https://www.nytimes.com/2017/09/29/opinion/impotence-anger-republicans.html'
p7
aS'https://www.nytimes.com/2017/09/29/opinion/stamp-collecting-philately.html'
p8
aS'https://www.nytimes.com/2017/09/29/opinion/ken-burns-vietnam-lessons.html'
p9
aS'https://www.nytimes.com/2017/09/29/opinion/trump-nfl-protest.html'
p10
aS'https://www.nytimes.com/2017/09/29/opinion/puerto-rico-hurricane-maria.html'
p11
aS'https://www.nytimes.com/2017/09/29/opinion/sunday/dating-age-gap.html'
p12
aS'https://www.nytimes.com/2017/09/29/opinion/activist-judge-roy-moore.html'
p13
aS'https://www.nytimes.com/2017/09/29/opinion/jared-kushner-new-jersey.html'
p14
aS'https://www.nytimes.com/2017/09/29/opinion/mark-zuckerberg-facebook.html'
p15
aS'https://www.nytimes.com/2017/09/29/opinion/sunday/hugh-hefner.html'
p16
aS'https://www.nytimes.com/2017/09/29/opinion/refugee-resettlement-trump.html'
p17
aS'https://www.nytimes.com/2017/09/29/opinion/sunday/we-are-all-jewish.html'
p18
aS'https://www.nytimes.com/2017/09/29/opinion/donald-trump-roy-moore.html'
p19
aS'https://www.nytimes.com/2017/09/28/opinion/heterosexuals-deserve-our-support.html'
p20
aS'https://www.nytimes.com/2017/09/30/opinion/erick-erickson-common-ground.html'
p21
aS'https://www.nytimes.com/2017/09/30/opinion/sunday/catholics-nigeria-traditional-mass.html'
p22
aS'https://www.nytimes.com/2017/09/30/opinion/sunday/alabama-moore-trump-divisions.html'
p23
aS'https://www.nytimes.com/2017/09/30/opinion/sunday/cubs-baseball-trump.html'
p24
aS'https://www.nytimes.com/2017/09/30/opinion/sunday/bipolar-medication-depakote-lithium-.html'
p25
aS'https://www.nytimes.com/2017/09/30/opinion/sunday/adjunct-professors-politics.html'
p26
aS'https://www.nytimes.com/2017/09/29/opinion/impotence-anger-republicans.html'
p27
aS'https://www.nytimes.com/2017/09/29/opinion/stamp-collecting-philately.html'
p28
aS'https://www.nytimes.com/2017/09/29/opinion/ken-burns-vietnam-lessons.html'
p29
aS'https://www.nytimes.com/2017/09/29/opinion/trump-nfl-protest.html'
p30
aS'https://www.nytimes.com/2017/09/29/opinion/puerto-rico-hurricane-maria.html'
p31
aS'https://www.nytimes.com/2017/09/29/opinion/sunday/dating-age-gap.html'
p32
aS'https://www.nytimes.com/2017/09/29/opinion/activist-judge-roy-moore.html'
p33
aS'https://www.nytimes.com/2017/09/29/opinion/jared-kushner-new-jersey.html'
p34
aS'https://www.nytimes.com/2017/09/29/opinion/mark-zuckerberg-facebook.html'
p35
aS'https://www.nytimes.com/2017/09/29/opinion/sunday/hugh-hefner.html'
p36
aS'https://www.nytimes.com/2017/09/29/opinion/refugee-resettlement-trump.html'
p37
aS'https://www.nytimes.com/2017/09/29/opinion/sunday/we-are-all-jewish.html'
p38
aS'https://www.nytimes.com/2017/09/29/opinion/donald-trump-roy-moore.html'
p39
aS'https://www.nytimes.com/2017/09/28/opinion/heterosexuals-deserve-our-support.html'
p40
a.