(lp0
S'https://www.nytimes.com/2017/09/21/opinion/sunday/-truvada-gay-hiv-aids.html'
p1
aS'https://www.nytimes.com/2017/09/21/opinion/pakistan-sex-family-planning.html'
p2
aS'https://www.nytimes.com/2017/09/21/opinion/raging-bull-jake-lamotta.html'
p3
aS'https://www.nytimes.com/2017/09/21/opinion/donald-trump-jokes.html'
p4
aS'https://www.nytimes.com/2017/09/21/opinion/on-trump-at-the-united-nations.html'
p5
aS'https://www.nytimes.com/2017/09/21/opinion/trump-castro-venezuela.html'
p6
aS'https://www.nytimes.com/2017/09/21/opinion/myanmar-rohingya-aung-san-suu-kyi.html'
p7
aS'https://www.nytimes.com/2017/09/21/opinion/mexico-earthquake.html'
p8
aS'https://www.nytimes.com/2017/09/21/opinion/incentives-businesses-corporations-giveaways.html'
p9
aS'https://www.nytimes.com/2017/09/21/opinion/get-rid-of-equifax.html'
p10
aS'https://www.nytimes.com/2017/09/21/opinion/iran-trump-nuclear-deal-.html'
p11
aS'https://www.nytimes.com/2017/09/20/opinion/world-leaders-talk-democracy.html'
p12
aS'https://www.nytimes.com/2017/09/20/opinion/graham-cassidy-health-care.html'
p13
aS'https://www.nytimes.com/2017/09/20/opinion/duterte-philippines.html'
p14
aS'https://www.nytimes.com/2017/09/20/opinion/germany-election-merkel.html'
p15
aS'https://www.nytimes.com/2017/09/20/opinion/vietnam-children-reel-.html'
p16
aS'https://www.nytimes.com/2017/09/20/opinion/rosh-hashana-jewish-celebrate.html'
p17
aS'https://www.nytimes.com/2017/09/20/opinion/bipolar-breakdown-mental-health-.html'
p18
aS'https://www.nytimes.com/2017/09/20/opinion/when-will-black-lives-matter-in-st-louis.html'
p19
aS'https://www.nytimes.com/2017/09/19/opinion/police-autism-understanding.html'
p20
aS'https://www.nytimes.com/2017/09/21/opinion/sunday/-truvada-gay-hiv-aids.html'
p21
aS'https://www.nytimes.com/2017/09/21/opinion/pakistan-sex-family-planning.html'
p22
aS'https://www.nytimes.com/2017/09/21/opinion/raging-bull-jake-lamotta.html'
p23
aS'https://www.nytimes.com/2017/09/21/opinion/donald-trump-jokes.html'
p24
aS'https://www.nytimes.com/2017/09/21/opinion/on-trump-at-the-united-nations.html'
p25
aS'https://www.nytimes.com/2017/09/21/opinion/trump-castro-venezuela.html'
p26
aS'https://www.nytimes.com/2017/09/21/opinion/myanmar-rohingya-aung-san-suu-kyi.html'
p27
aS'https://www.nytimes.com/2017/09/21/opinion/mexico-earthquake.html'
p28
aS'https://www.nytimes.com/2017/09/21/opinion/incentives-businesses-corporations-giveaways.html'
p29
aS'https://www.nytimes.com/2017/09/21/opinion/get-rid-of-equifax.html'
p30
aS'https://www.nytimes.com/2017/09/21/opinion/iran-trump-nuclear-deal-.html'
p31
aS'https://www.nytimes.com/2017/09/20/opinion/world-leaders-talk-democracy.html'
p32
aS'https://www.nytimes.com/2017/09/20/opinion/graham-cassidy-health-care.html'
p33
aS'https://www.nytimes.com/2017/09/20/opinion/duterte-philippines.html'
p34
aS'https://www.nytimes.com/2017/09/20/opinion/germany-election-merkel.html'
p35
aS'https://www.nytimes.com/2017/09/20/opinion/vietnam-children-reel-.html'
p36
aS'https://www.nytimes.com/2017/09/20/opinion/rosh-hashana-jewish-celebrate.html'
p37
aS'https://www.nytimes.com/2017/09/20/opinion/bipolar-breakdown-mental-health-.html'
p38
aS'https://www.nytimes.com/2017/09/20/opinion/when-will-black-lives-matter-in-st-louis.html'
p39
aS'https://www.nytimes.com/2017/09/19/opinion/police-autism-understanding.html'
p40
a.