(lp0
S'https://www.nytimes.com/2017/09/15/opinion/chelsea-manning-harvard-michael-morell.html'
p1
aS'https://www.nytimes.com/2017/09/15/opinion/sunday/vacation-benefits.html'
p2
aS'https://www.nytimes.com/2017/09/15/opinion/hurricane-irma-sandy.html'
p3
aS'https://www.nytimes.com/2017/09/15/opinion/william-howard-taft-bathtub.html'
p4
aS'https://www.nytimes.com/2017/09/15/sunday-review/future-suburb-millennials.html'
p5
aS'https://www.nytimes.com/2017/09/15/opinion/a-jail-sentence-ends-but-the-stigma-doesnt.html'
p6
aS'https://www.nytimes.com/2017/09/15/opinion/conservative-professors.html'
p7
aS'https://www.nytimes.com/2017/09/15/opinion/trump-energy-boom.html'
p8
aS'https://www.nytimes.com/2017/09/15/sunday-review/civil-war-statues-losers.html'
p9
aS'https://www.nytimes.com/2017/09/15/opinion/sunday/guantanamo-early-years-sea.html'
p10
aS'https://www.nytimes.com/2017/09/14/opinion/kara-walker-is-tired-of-talking-but-her-canvases-scream.html'
p11
aS'https://www.nytimes.com/2017/09/14/opinion/welcoming-refugees-trump-america.html'
p12
aS'https://www.nytimes.com/2017/09/14/opinion/sunday/when-a-novelist-writes-across-race.html'
p13
aS'https://www.nytimes.com/2017/09/14/opinion/south-korea-social-mobility.html'
p14
aS'https://www.nytimes.com/2017/09/14/opinion/john-kerry-amina-toure-democracy-kenya.html'
p15
aS'https://www.nytimes.com/2017/09/14/opinion/nelson-mandela-jacob-zuma.html'
p16
aS'https://www.nytimes.com/2017/09/14/opinion/cambodia-kem-sokha-hun-sen.html'
p17
aS'https://www.nytimes.com/2017/09/14/opinion/artist-putin-russia-serebrennikov.html'
p18
aS'https://www.nytimes.com/2017/09/14/opinion/hurricane-katrina-irma-harvey.html'
p19
aS'https://www.nytimes.com/2017/09/14/opinion/trumps-selective-devotion-to-law-and-order.html'
p20
aS'https://www.nytimes.com/2017/09/15/opinion/chelsea-manning-harvard-michael-morell.html'
p21
aS'https://www.nytimes.com/2017/09/15/opinion/sunday/vacation-benefits.html'
p22
aS'https://www.nytimes.com/2017/09/15/opinion/hurricane-irma-sandy.html'
p23
aS'https://www.nytimes.com/2017/09/15/opinion/william-howard-taft-bathtub.html'
p24
aS'https://www.nytimes.com/2017/09/15/sunday-review/future-suburb-millennials.html'
p25
aS'https://www.nytimes.com/2017/09/15/opinion/a-jail-sentence-ends-but-the-stigma-doesnt.html'
p26
aS'https://www.nytimes.com/2017/09/15/opinion/conservative-professors.html'
p27
aS'https://www.nytimes.com/2017/09/15/opinion/trump-energy-boom.html'
p28
aS'https://www.nytimes.com/2017/09/15/sunday-review/civil-war-statues-losers.html'
p29
aS'https://www.nytimes.com/2017/09/15/opinion/sunday/guantanamo-early-years-sea.html'
p30
aS'https://www.nytimes.com/2017/09/14/opinion/kara-walker-is-tired-of-talking-but-her-canvases-scream.html'
p31
aS'https://www.nytimes.com/2017/09/14/opinion/welcoming-refugees-trump-america.html'
p32
aS'https://www.nytimes.com/2017/09/14/opinion/sunday/when-a-novelist-writes-across-race.html'
p33
aS'https://www.nytimes.com/2017/09/14/opinion/south-korea-social-mobility.html'
p34
aS'https://www.nytimes.com/2017/09/14/opinion/john-kerry-amina-toure-democracy-kenya.html'
p35
aS'https://www.nytimes.com/2017/09/14/opinion/nelson-mandela-jacob-zuma.html'
p36
aS'https://www.nytimes.com/2017/09/14/opinion/cambodia-kem-sokha-hun-sen.html'
p37
aS'https://www.nytimes.com/2017/09/14/opinion/artist-putin-russia-serebrennikov.html'
p38
aS'https://www.nytimes.com/2017/09/14/opinion/hurricane-katrina-irma-harvey.html'
p39
aS'https://www.nytimes.com/2017/09/14/opinion/trumps-selective-devotion-to-law-and-order.html'
p40
a.