(lp0
S'https://www.nytimes.com/2017/09/18/opinion/in-the-amazon-a-catastrophic-gold-rush-looms.html'
p1
aS'https://www.nytimes.com/2017/09/18/opinion/brazil-corruption-car-wash.html'
p2
aS'https://www.nytimes.com/2017/09/18/opinion/syria-democracy-fail.html'
p3
aS'https://www.nytimes.com/2017/09/18/opinion/north-korea-nuclear-weapons-russia.html'
p4
aS'https://www.nytimes.com/2017/09/18/opinion/libraries-affordable-housing.html'
p5
aS'https://www.nytimes.com/2017/09/18/opinion/punk-rock-communist-yugoslavia.html'
p6
aS'https://www.nytimes.com/2017/09/18/opinion/campus-sexual-assault-devos.html'
p7
aS'https://www.nytimes.com/2017/09/18/opinion/feminist-philosophy-future.html'
p8
aS'https://www.nytimes.com/2017/09/17/opinion/contributors/heng-on-opposition-and-democracy-in-cambodia.html'
p9
aS'https://www.nytimes.com/2017/09/17/opinion/north-korea-shinzo-abe-japan.html'
p10
aS'https://www.nytimes.com/2017/09/16/opinion/sunday/constitution-economy.html'
p11
aS'https://www.nytimes.com/2017/09/16/opinion/sunday/statue-south-carolina-de-laine.html'
p12
aS'https://www.nytimes.com/2017/09/16/opinion/sunday/ellen-pao-sexism-tech.html'
p13
aS'https://www.nytimes.com/2017/09/16/opinion/sunday/eric-cantor-immigration-daca.html'
p14
aS'https://www.nytimes.com/2017/09/16/opinion/sunday/trump-does-not-laugh.html'
p15
aS'https://www.nytimes.com/2017/09/16/opinion/sunday/amber-tamblyn-james-woods.html'
p16
aS'https://www.nytimes.com/2017/09/16/opinion/trump-afghanistan-vietnam-war.html'
p17
aS'https://www.nytimes.com/2017/09/15/opinion/sunday/martin-shkreli-jokes.html'
p18
aS'https://www.nytimes.com/2017/09/15/opinion/sports-gender-gap-serena.html'
p19
aS'https://www.nytimes.com/2017/09/15/opinion/truffle-oil-chemicals.html'
p20
aS'https://www.nytimes.com/2017/09/18/opinion/in-the-amazon-a-catastrophic-gold-rush-looms.html'
p21
aS'https://www.nytimes.com/2017/09/18/opinion/brazil-corruption-car-wash.html'
p22
aS'https://www.nytimes.com/2017/09/18/opinion/syria-democracy-fail.html'
p23
aS'https://www.nytimes.com/2017/09/18/opinion/north-korea-nuclear-weapons-russia.html'
p24
aS'https://www.nytimes.com/2017/09/18/opinion/libraries-affordable-housing.html'
p25
aS'https://www.nytimes.com/2017/09/18/opinion/punk-rock-communist-yugoslavia.html'
p26
aS'https://www.nytimes.com/2017/09/18/opinion/campus-sexual-assault-devos.html'
p27
aS'https://www.nytimes.com/2017/09/18/opinion/feminist-philosophy-future.html'
p28
aS'https://www.nytimes.com/2017/09/17/opinion/contributors/heng-on-opposition-and-democracy-in-cambodia.html'
p29
aS'https://www.nytimes.com/2017/09/17/opinion/north-korea-shinzo-abe-japan.html'
p30
aS'https://www.nytimes.com/2017/09/16/opinion/sunday/constitution-economy.html'
p31
aS'https://www.nytimes.com/2017/09/16/opinion/sunday/statue-south-carolina-de-laine.html'
p32
aS'https://www.nytimes.com/2017/09/16/opinion/sunday/ellen-pao-sexism-tech.html'
p33
aS'https://www.nytimes.com/2017/09/16/opinion/sunday/eric-cantor-immigration-daca.html'
p34
aS'https://www.nytimes.com/2017/09/16/opinion/sunday/trump-does-not-laugh.html'
p35
aS'https://www.nytimes.com/2017/09/16/opinion/sunday/amber-tamblyn-james-woods.html'
p36
aS'https://www.nytimes.com/2017/09/16/opinion/trump-afghanistan-vietnam-war.html'
p37
aS'https://www.nytimes.com/2017/09/15/opinion/sunday/martin-shkreli-jokes.html'
p38
aS'https://www.nytimes.com/2017/09/15/opinion/sports-gender-gap-serena.html'
p39
aS'https://www.nytimes.com/2017/09/15/opinion/truffle-oil-chemicals.html'
p40
a.