(lp0
S'https://www.nytimes.com/2017/09/19/opinion/need-political-parties.html'
p1
aS'https://www.nytimes.com/2017/09/19/opinion/samantha-power-propaganda-fake-news.html'
p2
aS'https://www.nytimes.com/2017/09/19/opinion/brexit-britain-corruption.html'
p3
aS'https://www.nytimes.com/2017/09/19/opinion/language-female-friendship-mothers.html'
p4
aS'https://www.nytimes.com/2017/09/19/opinion/free-community-college-chicago.html'
p5
aS'https://www.nytimes.com/2017/09/19/opinion/sanders-health-care-medicare.html'
p6
aS'https://www.nytimes.com/2017/09/19/opinion/in-africa-a-glimpse-of-hope-for-beating-hiv.html'
p7
aS'https://www.nytimes.com/2017/09/19/opinion/vietnam-war-americans-culture.html'
p8
aS'https://www.nytimes.com/2017/09/18/opinion/issa-emmys-rooting-everybody-black-.html'
p9
aS'https://www.nytimes.com/2017/09/18/opinion/in-the-amazon-a-catastrophic-gold-rush-looms.html'
p10
aS'https://www.nytimes.com/2017/09/18/opinion/brazil-corruption-car-wash.html'
p11
aS'https://www.nytimes.com/2017/09/18/opinion/syria-democracy-fail.html'
p12
aS'https://www.nytimes.com/2017/09/18/opinion/north-korea-nuclear-weapons-russia.html'
p13
aS'https://www.nytimes.com/2017/09/18/opinion/libraries-affordable-housing.html'
p14
aS'https://www.nytimes.com/2017/09/18/opinion/punk-rock-communist-yugoslavia.html'
p15
aS'https://www.nytimes.com/2017/09/18/opinion/campus-sexual-assault-devos.html'
p16
aS'https://www.nytimes.com/2017/09/18/opinion/feminist-philosophy-future.html'
p17
aS'https://www.nytimes.com/2017/09/17/opinion/contributors/heng-on-opposition-and-democracy-in-cambodia.html'
p18
aS'https://www.nytimes.com/2017/09/17/opinion/north-korea-shinzo-abe-japan.html'
p19
aS'https://www.nytimes.com/2017/09/16/opinion/sunday/constitution-economy.html'
p20
aS'https://www.nytimes.com/2017/09/19/opinion/need-political-parties.html'
p21
aS'https://www.nytimes.com/2017/09/19/opinion/samantha-power-propaganda-fake-news.html'
p22
aS'https://www.nytimes.com/2017/09/19/opinion/brexit-britain-corruption.html'
p23
aS'https://www.nytimes.com/2017/09/19/opinion/language-female-friendship-mothers.html'
p24
aS'https://www.nytimes.com/2017/09/19/opinion/free-community-college-chicago.html'
p25
aS'https://www.nytimes.com/2017/09/19/opinion/sanders-health-care-medicare.html'
p26
aS'https://www.nytimes.com/2017/09/19/opinion/in-africa-a-glimpse-of-hope-for-beating-hiv.html'
p27
aS'https://www.nytimes.com/2017/09/19/opinion/vietnam-war-americans-culture.html'
p28
aS'https://www.nytimes.com/2017/09/18/opinion/issa-emmys-rooting-everybody-black-.html'
p29
aS'https://www.nytimes.com/2017/09/18/opinion/in-the-amazon-a-catastrophic-gold-rush-looms.html'
p30
aS'https://www.nytimes.com/2017/09/18/opinion/brazil-corruption-car-wash.html'
p31
aS'https://www.nytimes.com/2017/09/18/opinion/syria-democracy-fail.html'
p32
aS'https://www.nytimes.com/2017/09/18/opinion/north-korea-nuclear-weapons-russia.html'
p33
aS'https://www.nytimes.com/2017/09/18/opinion/libraries-affordable-housing.html'
p34
aS'https://www.nytimes.com/2017/09/18/opinion/punk-rock-communist-yugoslavia.html'
p35
aS'https://www.nytimes.com/2017/09/18/opinion/campus-sexual-assault-devos.html'
p36
aS'https://www.nytimes.com/2017/09/18/opinion/feminist-philosophy-future.html'
p37
aS'https://www.nytimes.com/2017/09/17/opinion/contributors/heng-on-opposition-and-democracy-in-cambodia.html'
p38
aS'https://www.nytimes.com/2017/09/17/opinion/north-korea-shinzo-abe-japan.html'
p39
aS'https://www.nytimes.com/2017/09/16/opinion/sunday/constitution-economy.html'
p40
a.