(lp0
S'https://www.nytimes.com/2017/09/25/opinion/women-china-communist-revolution.html'
p1
aS'https://www.nytimes.com/2017/09/25/opinion/descartes-is-not-our-father.html'
p2
aS'https://www.nytimes.com/2017/09/25/opinion/the-only-way-to-defend-against-russias-information-war.html'
p3
aS'https://www.nytimes.com/2017/09/24/opinion/milo-yiannopoulos-free-speech-week-berkeley.html'
p4
aS'https://www.nytimes.com/2017/09/24/opinion/editorials/merkel-victory-election-populism.html'
p5
aS'https://www.nytimes.com/2017/09/24/opinion/trump-north-korea-rocket-man-.html'
p6
aS'https://www.nytimes.com/2017/09/24/opinion/football-nfl-take-the-knee-trump.html'
p7
aS'https://www.nytimes.com/2017/09/24/opinion/trump-kurdish-independence.html'
p8
aS'https://www.nytimes.com/2017/09/24/opinion/pakistan-modern-middle-class.html'
p9
aS'https://www.nytimes.com/2017/09/24/opinion/dying-art-of-disagreement.html'
p10
aS'https://www.nytimes.com/2017/09/23/opinion/sunday/devos-college-sexual-assault.html'
p11
aS'https://www.nytimes.com/2017/09/23/opinion/sunday/brazil-amazon-uncontacted-tribes.html'
p12
aS'https://www.nytimes.com/2017/09/23/opinion/sunday/trump-kim-jong-un.html'
p13
aS'https://www.nytimes.com/2017/09/23/opinion/sunday/facebook-ad-scandal.html'
p14
aS'https://www.nytimes.com/2017/09/23/opinion/sunday/feminist-history-road-trip.html'
p15
aS'https://www.nytimes.com/2017/09/23/opinion/rolling-stone-magazine.html'
p16
aS'https://www.nytimes.com/2017/09/23/opinion/london-uber-labour-party.html'
p17
aS'https://www.nytimes.com/2017/09/22/opinion/sunday/mexico-citys-people-power.html'
p18
aS'https://www.nytimes.com/2017/09/22/opinion/trump-turnbull-australia-china.html'
p19
aS'https://www.nytimes.com/2017/09/22/opinion/aaron-hernandez-cte.html'
p20
aS'https://www.nytimes.com/2017/09/25/opinion/women-china-communist-revolution.html'
p21
aS'https://www.nytimes.com/2017/09/25/opinion/descartes-is-not-our-father.html'
p22
aS'https://www.nytimes.com/2017/09/25/opinion/the-only-way-to-defend-against-russias-information-war.html'
p23
aS'https://www.nytimes.com/2017/09/24/opinion/milo-yiannopoulos-free-speech-week-berkeley.html'
p24
aS'https://www.nytimes.com/2017/09/24/opinion/editorials/merkel-victory-election-populism.html'
p25
aS'https://www.nytimes.com/2017/09/24/opinion/trump-north-korea-rocket-man-.html'
p26
aS'https://www.nytimes.com/2017/09/24/opinion/football-nfl-take-the-knee-trump.html'
p27
aS'https://www.nytimes.com/2017/09/24/opinion/trump-kurdish-independence.html'
p28
aS'https://www.nytimes.com/2017/09/24/opinion/pakistan-modern-middle-class.html'
p29
aS'https://www.nytimes.com/2017/09/24/opinion/dying-art-of-disagreement.html'
p30
aS'https://www.nytimes.com/2017/09/23/opinion/sunday/devos-college-sexual-assault.html'
p31
aS'https://www.nytimes.com/2017/09/23/opinion/sunday/brazil-amazon-uncontacted-tribes.html'
p32
aS'https://www.nytimes.com/2017/09/23/opinion/sunday/trump-kim-jong-un.html'
p33
aS'https://www.nytimes.com/2017/09/23/opinion/sunday/facebook-ad-scandal.html'
p34
aS'https://www.nytimes.com/2017/09/23/opinion/sunday/feminist-history-road-trip.html'
p35
aS'https://www.nytimes.com/2017/09/23/opinion/rolling-stone-magazine.html'
p36
aS'https://www.nytimes.com/2017/09/23/opinion/london-uber-labour-party.html'
p37
aS'https://www.nytimes.com/2017/09/22/opinion/sunday/mexico-citys-people-power.html'
p38
aS'https://www.nytimes.com/2017/09/22/opinion/trump-turnbull-australia-china.html'
p39
aS'https://www.nytimes.com/2017/09/22/opinion/aaron-hernandez-cte.html'
p40
a.