(lp0
S'https://www.nytimes.com/2017/09/29/opinion/refugee-resettlement-trump.html'
p1
aS'https://www.nytimes.com/2017/09/29/opinion/sunday/we-are-all-jewish.html'
p2
aS'https://www.nytimes.com/2017/09/29/opinion/donald-trump-roy-moore.html'
p3
aS'https://www.nytimes.com/2017/09/28/opinion/heterosexuals-deserve-our-support.html'
p4
aS'https://www.nytimes.com/2017/09/28/opinion/catalonia-referendum-independence-spain.html'
p5
aS'https://www.nytimes.com/2017/09/28/opinion/saudi-women-can-finally-drive.html'
p6
aS'https://www.nytimes.com/2017/09/28/opinion/sunday/trump-gangs-soccer-education.html'
p7
aS'https://www.nytimes.com/2017/09/28/opinion/twitter-280-characters.html'
p8
aS'https://www.nytimes.com/2017/09/28/opinion/girls-who-code-trump-stem.html'
p9
aS'https://www.nytimes.com/2017/09/28/opinion/hugh-hefner-playboy.html'
p10
aS'https://www.nytimes.com/2017/09/28/opinion/puerto-rico-hurricane-maria.html'
p11
aS'https://www.nytimes.com/2017/09/28/opinion/mustafa-akyol-detention-malaysia.html'
p12
aS'https://www.nytimes.com/2017/09/28/opinion/valerie-plame-anti-semitism.html'
p13
aS'https://www.nytimes.com/2017/09/27/opinion/saudi-arabia-women-driving-.html'
p14
aS'https://www.nytimes.com/2017/09/27/opinion/alabama-roy-moore-establishment.html'
p15
aS'https://www.nytimes.com/2017/09/27/opinion/alt-right-neo-nazis.html'
p16
aS'https://www.nytimes.com/2017/09/27/opinion/military-support-kaepernick.html'
p17
aS'https://www.nytimes.com/2017/09/27/opinion/iraq-kurds-independence.html'
p18
aS'https://www.nytimes.com/2017/09/27/opinion/turkey-syrian-refugees.html'
p19
aS'https://www.nytimes.com/2017/09/27/opinion/online-dating-disability.html'
p20
aS'https://www.nytimes.com/2017/09/29/opinion/refugee-resettlement-trump.html'
p21
aS'https://www.nytimes.com/2017/09/29/opinion/sunday/we-are-all-jewish.html'
p22
aS'https://www.nytimes.com/2017/09/29/opinion/donald-trump-roy-moore.html'
p23
aS'https://www.nytimes.com/2017/09/28/opinion/heterosexuals-deserve-our-support.html'
p24
aS'https://www.nytimes.com/2017/09/28/opinion/catalonia-referendum-independence-spain.html'
p25
aS'https://www.nytimes.com/2017/09/28/opinion/saudi-women-can-finally-drive.html'
p26
aS'https://www.nytimes.com/2017/09/28/opinion/sunday/trump-gangs-soccer-education.html'
p27
aS'https://www.nytimes.com/2017/09/28/opinion/twitter-280-characters.html'
p28
aS'https://www.nytimes.com/2017/09/28/opinion/girls-who-code-trump-stem.html'
p29
aS'https://www.nytimes.com/2017/09/28/opinion/hugh-hefner-playboy.html'
p30
aS'https://www.nytimes.com/2017/09/28/opinion/puerto-rico-hurricane-maria.html'
p31
aS'https://www.nytimes.com/2017/09/28/opinion/mustafa-akyol-detention-malaysia.html'
p32
aS'https://www.nytimes.com/2017/09/28/opinion/valerie-plame-anti-semitism.html'
p33
aS'https://www.nytimes.com/2017/09/27/opinion/saudi-arabia-women-driving-.html'
p34
aS'https://www.nytimes.com/2017/09/27/opinion/alabama-roy-moore-establishment.html'
p35
aS'https://www.nytimes.com/2017/09/27/opinion/alt-right-neo-nazis.html'
p36
aS'https://www.nytimes.com/2017/09/27/opinion/military-support-kaepernick.html'
p37
aS'https://www.nytimes.com/2017/09/27/opinion/iraq-kurds-independence.html'
p38
aS'https://www.nytimes.com/2017/09/27/opinion/turkey-syrian-refugees.html'
p39
aS'https://www.nytimes.com/2017/09/27/opinion/online-dating-disability.html'
p40
a.