(lp0
S'https://www.nytimes.com/2017/09/14/opinion/south-korea-social-mobility.html'
p1
aS'https://www.nytimes.com/2017/09/14/opinion/john-kerry-amina-toure-democracy-kenya.html'
p2
aS'https://www.nytimes.com/2017/09/14/opinion/nelson-mandela-jacob-zuma.html'
p3
aS'https://www.nytimes.com/2017/09/14/opinion/cambodia-kem-sokha-hun-sen.html'
p4
aS'https://www.nytimes.com/2017/09/14/opinion/artist-putin-russia-serebrennikov.html'
p5
aS'https://www.nytimes.com/2017/09/14/opinion/hurricane-katrina-irma-harvey.html'
p6
aS'https://www.nytimes.com/2017/09/14/opinion/trumps-selective-devotion-to-law-and-order.html'
p7
aS'https://www.nytimes.com/2017/09/14/opinion/joe-biden-more-perfect-union.html'
p8
aS'https://www.nytimes.com/2017/09/14/opinion/trump-federal-reserve-markets.html'
p9
aS'https://www.nytimes.com/2017/09/13/opinion/bodega-startup-new-york-google.html'
p10
aS'https://www.nytimes.com/2017/09/13/opinion/faith-law-and-dianne-feinstein.html'
p11
aS'https://www.nytimes.com/2017/09/13/opinion/your-social-security-number-isnt-a-secret.html'
p12
aS'https://www.nytimes.com/2017/09/13/opinion/democracy-endangered.html'
p13
aS'https://www.nytimes.com/2017/09/13/opinion/campus-rape-devos-title-ix.html'
p14
aS'https://www.nytimes.com/2017/09/13/opinion/edie-windsor-gay-rights.html'
p15
aS'https://www.nytimes.com/2017/09/13/opinion/pakistan-wont-let-terrorist-organizations-contest-elections-for-now.html'
p16
aS'https://www.nytimes.com/2017/09/13/opinion/venezuela-married-leopoldo-lopez.html'
p17
aS'https://www.nytimes.com/2017/09/13/opinion/strongman-world-democracy.html'
p18
aS'https://www.nytimes.com/2017/09/13/opinion/chelsea-manning-big-data-dystopia.html'
p19
aS'https://www.nytimes.com/2017/09/13/opinion/north-korea-nuclear-weapons-japan.html'
p20
aS'https://www.nytimes.com/2017/09/14/opinion/south-korea-social-mobility.html'
p21
aS'https://www.nytimes.com/2017/09/14/opinion/john-kerry-amina-toure-democracy-kenya.html'
p22
aS'https://www.nytimes.com/2017/09/14/opinion/nelson-mandela-jacob-zuma.html'
p23
aS'https://www.nytimes.com/2017/09/14/opinion/cambodia-kem-sokha-hun-sen.html'
p24
aS'https://www.nytimes.com/2017/09/14/opinion/artist-putin-russia-serebrennikov.html'
p25
aS'https://www.nytimes.com/2017/09/14/opinion/hurricane-katrina-irma-harvey.html'
p26
aS'https://www.nytimes.com/2017/09/14/opinion/trumps-selective-devotion-to-law-and-order.html'
p27
aS'https://www.nytimes.com/2017/09/14/opinion/joe-biden-more-perfect-union.html'
p28
aS'https://www.nytimes.com/2017/09/14/opinion/trump-federal-reserve-markets.html'
p29
aS'https://www.nytimes.com/2017/09/13/opinion/bodega-startup-new-york-google.html'
p30
aS'https://www.nytimes.com/2017/09/13/opinion/faith-law-and-dianne-feinstein.html'
p31
aS'https://www.nytimes.com/2017/09/13/opinion/your-social-security-number-isnt-a-secret.html'
p32
aS'https://www.nytimes.com/2017/09/13/opinion/democracy-endangered.html'
p33
aS'https://www.nytimes.com/2017/09/13/opinion/campus-rape-devos-title-ix.html'
p34
aS'https://www.nytimes.com/2017/09/13/opinion/edie-windsor-gay-rights.html'
p35
aS'https://www.nytimes.com/2017/09/13/opinion/pakistan-wont-let-terrorist-organizations-contest-elections-for-now.html'
p36
aS'https://www.nytimes.com/2017/09/13/opinion/venezuela-married-leopoldo-lopez.html'
p37
aS'https://www.nytimes.com/2017/09/13/opinion/strongman-world-democracy.html'
p38
aS'https://www.nytimes.com/2017/09/13/opinion/chelsea-manning-big-data-dystopia.html'
p39
aS'https://www.nytimes.com/2017/09/13/opinion/north-korea-nuclear-weapons-japan.html'
p40
a.