(lp0
S'https://www.nytimes.com/2017/09/12/opinion/jimmy-carter-electronic-voting.html'
p1
aS'https://www.nytimes.com/2017/09/12/opinion/putin-russia-mikhail-khodorkovsky.html'
p2
aS'https://www.nytimes.com/2017/09/12/opinion/our-vital-vulnerable-coasts.html'
p3
aS'https://www.nytimes.com/2017/09/12/opinion/time-to-restrict-the-presidents-power-to-wage-nuclear-war.html'
p4
aS'https://www.nytimes.com/2017/09/12/opinion/what-i-saw-on-the-way-to-the-revolution.html'
p5
aS'https://www.nytimes.com/2017/09/12/opinion/fighting-cholera-haiti.html'
p6
aS'https://www.nytimes.com/2017/09/11/opinion/contradictions-hajj-through-smartphone.html'
p7
aS'https://www.nytimes.com/2017/09/11/opinion/equifax-accountability-security.html'
p8
aS'https://www.nytimes.com/2017/09/11/opinion/australia-indigenous-uluru-aborigines.html'
p9
aS'https://www.nytimes.com/2017/09/11/opinion/the-problem-of-living-in-the-present.html'
p10
aS'https://www.nytimes.com/2017/09/11/opinion/why-george-bernard-shaw-had-a-crush-on-stalin.html'
p11
aS'https://www.nytimes.com/2017/09/11/opinion/south-slavery-confederate-states.html'
p12
aS'https://www.nytimes.com/2017/09/11/opinion/teacher-certification-new-york.html'
p13
aS'https://www.nytimes.com/2017/09/11/opinion/remembering-the-disappeared.html'
p14
aS'https://www.nytimes.com/2017/09/11/opinion/the-dogma-of-dianne-feinstein.html'
p15
aS'https://www.nytimes.com/2017/09/10/opinion/contributors/heng-on-daw-aung-san-suu-kyi-and-the-rohingya.html'
p16
aS'https://www.nytimes.com/2017/09/10/opinion/indias-supreme-court-expands-freedom.html'
p17
aS'https://www.nytimes.com/2017/09/09/opinion/sunday/surfing-9-11.html'
p18
aS'https://www.nytimes.com/2017/09/09/opinion/sunday/irma-hurricanes-florida.html'
p19
aS'https://www.nytimes.com/2017/09/09/opinion/sunday/household-robots-alexa-homepod.html'
p20
aS'https://www.nytimes.com/2017/09/12/opinion/jimmy-carter-electronic-voting.html'
p21
aS'https://www.nytimes.com/2017/09/12/opinion/putin-russia-mikhail-khodorkovsky.html'
p22
aS'https://www.nytimes.com/2017/09/12/opinion/our-vital-vulnerable-coasts.html'
p23
aS'https://www.nytimes.com/2017/09/12/opinion/time-to-restrict-the-presidents-power-to-wage-nuclear-war.html'
p24
aS'https://www.nytimes.com/2017/09/12/opinion/what-i-saw-on-the-way-to-the-revolution.html'
p25
aS'https://www.nytimes.com/2017/09/12/opinion/fighting-cholera-haiti.html'
p26
aS'https://www.nytimes.com/2017/09/11/opinion/contradictions-hajj-through-smartphone.html'
p27
aS'https://www.nytimes.com/2017/09/11/opinion/equifax-accountability-security.html'
p28
aS'https://www.nytimes.com/2017/09/11/opinion/australia-indigenous-uluru-aborigines.html'
p29
aS'https://www.nytimes.com/2017/09/11/opinion/the-problem-of-living-in-the-present.html'
p30
aS'https://www.nytimes.com/2017/09/11/opinion/why-george-bernard-shaw-had-a-crush-on-stalin.html'
p31
aS'https://www.nytimes.com/2017/09/11/opinion/south-slavery-confederate-states.html'
p32
aS'https://www.nytimes.com/2017/09/11/opinion/teacher-certification-new-york.html'
p33
aS'https://www.nytimes.com/2017/09/11/opinion/remembering-the-disappeared.html'
p34
aS'https://www.nytimes.com/2017/09/11/opinion/the-dogma-of-dianne-feinstein.html'
p35
aS'https://www.nytimes.com/2017/09/10/opinion/contributors/heng-on-daw-aung-san-suu-kyi-and-the-rohingya.html'
p36
aS'https://www.nytimes.com/2017/09/10/opinion/indias-supreme-court-expands-freedom.html'
p37
aS'https://www.nytimes.com/2017/09/09/opinion/sunday/surfing-9-11.html'
p38
aS'https://www.nytimes.com/2017/09/09/opinion/sunday/irma-hurricanes-florida.html'
p39
aS'https://www.nytimes.com/2017/09/09/opinion/sunday/household-robots-alexa-homepod.html'
p40
a.