(lp0
S'https://www.nytimes.com/2017/09/20/opinion/world-leaders-talk-democracy.html'
p1
aS'https://www.nytimes.com/2017/09/20/opinion/graham-cassidy-health-care.html'
p2
aS'https://www.nytimes.com/2017/09/20/opinion/duterte-philippines.html'
p3
aS'https://www.nytimes.com/2017/09/20/opinion/germany-election-merkel.html'
p4
aS'https://www.nytimes.com/2017/09/20/opinion/vietnam-children-reel-.html'
p5
aS'https://www.nytimes.com/2017/09/20/opinion/rosh-hashana-jewish-celebrate.html'
p6
aS'https://www.nytimes.com/2017/09/20/opinion/bipolar-breakdown-mental-health-.html'
p7
aS'https://www.nytimes.com/2017/09/20/opinion/when-will-black-lives-matter-in-st-louis.html'
p8
aS'https://www.nytimes.com/2017/09/19/opinion/police-autism-understanding.html'
p9
aS'https://www.nytimes.com/2017/09/19/opinion/alt-right-white-supremacy-undercover.html'
p10
aS'https://www.nytimes.com/2017/09/19/opinion/the-remembering-machine.html'
p11
aS'https://www.nytimes.com/2017/09/19/opinion/discussing-the-vietnam-war.html'
p12
aS'https://www.nytimes.com/2017/09/19/opinion/9-back-to-school-lessons-parents-students.html'
p13
aS'https://www.nytimes.com/2017/09/19/opinion/need-political-parties.html'
p14
aS'https://www.nytimes.com/2017/09/19/opinion/samantha-power-propaganda-fake-news.html'
p15
aS'https://www.nytimes.com/2017/09/19/opinion/brexit-britain-corruption.html'
p16
aS'https://www.nytimes.com/2017/09/19/opinion/language-female-friendship-mothers.html'
p17
aS'https://www.nytimes.com/2017/09/19/opinion/free-community-college-chicago.html'
p18
aS'https://www.nytimes.com/2017/09/19/opinion/in-africa-a-glimpse-of-hope-for-beating-hiv.html'
p19
aS'https://www.nytimes.com/2017/09/19/opinion/sanders-health-care-medicare.html'
p20
aS'https://www.nytimes.com/2017/09/20/opinion/world-leaders-talk-democracy.html'
p21
aS'https://www.nytimes.com/2017/09/20/opinion/graham-cassidy-health-care.html'
p22
aS'https://www.nytimes.com/2017/09/20/opinion/duterte-philippines.html'
p23
aS'https://www.nytimes.com/2017/09/20/opinion/germany-election-merkel.html'
p24
aS'https://www.nytimes.com/2017/09/20/opinion/vietnam-children-reel-.html'
p25
aS'https://www.nytimes.com/2017/09/20/opinion/rosh-hashana-jewish-celebrate.html'
p26
aS'https://www.nytimes.com/2017/09/20/opinion/bipolar-breakdown-mental-health-.html'
p27
aS'https://www.nytimes.com/2017/09/20/opinion/when-will-black-lives-matter-in-st-louis.html'
p28
aS'https://www.nytimes.com/2017/09/19/opinion/police-autism-understanding.html'
p29
aS'https://www.nytimes.com/2017/09/19/opinion/alt-right-white-supremacy-undercover.html'
p30
aS'https://www.nytimes.com/2017/09/19/opinion/the-remembering-machine.html'
p31
aS'https://www.nytimes.com/2017/09/19/opinion/discussing-the-vietnam-war.html'
p32
aS'https://www.nytimes.com/2017/09/19/opinion/9-back-to-school-lessons-parents-students.html'
p33
aS'https://www.nytimes.com/2017/09/19/opinion/need-political-parties.html'
p34
aS'https://www.nytimes.com/2017/09/19/opinion/samantha-power-propaganda-fake-news.html'
p35
aS'https://www.nytimes.com/2017/09/19/opinion/brexit-britain-corruption.html'
p36
aS'https://www.nytimes.com/2017/09/19/opinion/language-female-friendship-mothers.html'
p37
aS'https://www.nytimes.com/2017/09/19/opinion/free-community-college-chicago.html'
p38
aS'https://www.nytimes.com/2017/09/19/opinion/in-africa-a-glimpse-of-hope-for-beating-hiv.html'
p39
aS'https://www.nytimes.com/2017/09/19/opinion/sanders-health-care-medicare.html'
p40
a.