(lp0
S'https://www.nytimes.com/2017/09/26/opinion/nyu-abu-dhabi.html'
p1
aS'https://www.nytimes.com/2017/09/26/opinion/courts-that-save-opioid-victims-family-life.html'
p2
aS'https://www.nytimes.com/2017/09/26/opinion/do-republicans-really-care-about-the-deficit.html'
p3
aS'https://www.nytimes.com/2017/09/26/opinion/frats-college-partying-pledging.html'
p4
aS'https://www.nytimes.com/2017/09/26/opinion/fighting-malaria-mekong.html'
p5
aS'https://www.nytimes.com/2017/09/26/opinion/vietnam-tiger-force-atrocities.html'
p6
aS'https://www.nytimes.com/2017/09/25/opinion/hurricane-puerto-rico-jones-act.html'
p7
aS'https://www.nytimes.com/2017/09/25/opinion/weiner-sexting-sentencing-prison.html'
p8
aS'https://www.nytimes.com/2017/09/25/opinion/trump-electoral-college-minority.html'
p9
aS'https://www.nytimes.com/2017/09/25/opinion/columnists/merkel-german-election-afd.html'
p10
aS'https://www.nytimes.com/2017/09/25/opinion/marine-corps-women-.html'
p11
aS'https://www.nytimes.com/2017/09/25/opinion/nfl-football-kaepernick-take-knee.html'
p12
aS'https://www.nytimes.com/2017/09/25/opinion/black-students-little-rock-punishment.html'
p13
aS'https://www.nytimes.com/2017/09/25/opinion/colin-kaepernick-football-protests.html'
p14
aS'https://www.nytimes.com/2017/09/25/opinion/gauri-lankesh-the-girl-from-pakistan.html'
p15
aS'https://www.nytimes.com/2017/09/25/opinion/reality-tv-meets-politics-brazilian-style.html'
p16
aS'https://www.nytimes.com/2017/09/25/opinion/germany-merkel-election.html'
p17
aS'https://www.nytimes.com/2017/09/25/opinion/women-china-communist-revolution.html'
p18
aS'https://www.nytimes.com/2017/09/25/opinion/descartes-is-not-our-father.html'
p19
aS'https://www.nytimes.com/2017/09/25/opinion/the-only-way-to-defend-against-russias-information-war.html'
p20
aS'https://www.nytimes.com/2017/09/26/opinion/nyu-abu-dhabi.html'
p21
aS'https://www.nytimes.com/2017/09/26/opinion/courts-that-save-opioid-victims-family-life.html'
p22
aS'https://www.nytimes.com/2017/09/26/opinion/do-republicans-really-care-about-the-deficit.html'
p23
aS'https://www.nytimes.com/2017/09/26/opinion/frats-college-partying-pledging.html'
p24
aS'https://www.nytimes.com/2017/09/26/opinion/fighting-malaria-mekong.html'
p25
aS'https://www.nytimes.com/2017/09/26/opinion/vietnam-tiger-force-atrocities.html'
p26
aS'https://www.nytimes.com/2017/09/25/opinion/hurricane-puerto-rico-jones-act.html'
p27
aS'https://www.nytimes.com/2017/09/25/opinion/weiner-sexting-sentencing-prison.html'
p28
aS'https://www.nytimes.com/2017/09/25/opinion/trump-electoral-college-minority.html'
p29
aS'https://www.nytimes.com/2017/09/25/opinion/columnists/merkel-german-election-afd.html'
p30
aS'https://www.nytimes.com/2017/09/25/opinion/marine-corps-women-.html'
p31
aS'https://www.nytimes.com/2017/09/25/opinion/nfl-football-kaepernick-take-knee.html'
p32
aS'https://www.nytimes.com/2017/09/25/opinion/black-students-little-rock-punishment.html'
p33
aS'https://www.nytimes.com/2017/09/25/opinion/colin-kaepernick-football-protests.html'
p34
aS'https://www.nytimes.com/2017/09/25/opinion/gauri-lankesh-the-girl-from-pakistan.html'
p35
aS'https://www.nytimes.com/2017/09/25/opinion/reality-tv-meets-politics-brazilian-style.html'
p36
aS'https://www.nytimes.com/2017/09/25/opinion/germany-merkel-election.html'
p37
aS'https://www.nytimes.com/2017/09/25/opinion/women-china-communist-revolution.html'
p38
aS'https://www.nytimes.com/2017/09/25/opinion/descartes-is-not-our-father.html'
p39
aS'https://www.nytimes.com/2017/09/25/opinion/the-only-way-to-defend-against-russias-information-war.html'
p40
a.