(lp0
S'https://www.nytimes.com/2017/09/25/opinion/editorials/trump-travel-ban.html'
p1
aS'https://www.nytimes.com/2017/09/25/opinion/anthony-weiner-sentencing-sexting.html'
p2
aS'https://www.nytimes.com/2017/09/25/opinion/migrants-italy-europe.html'
p3
aS'https://www.nytimes.com/2017/09/24/opinion/nfl-football-patriots-take-a-knee.html'
p4
aS'https://www.nytimes.com/2017/09/24/opinion/editorials/puerto-rico-maria-hurricane.html'
p5
aS'https://www.nytimes.com/2017/09/23/opinion/trump-curry-kaepernick-lebron.html'
p6
aS'https://www.nytimes.com/2017/09/23/opinion/sunday/starry-night-van-gogh-selfies.html'
p7
aS'https://www.nytimes.com/2017/09/23/opinion/sunday/trump-trust-iran-korea.html'
p8
aS'https://www.nytimes.com/2017/09/22/opinion/facebook-mark-zuckerberg-political-ads.html'
p9
aS'https://www.nytimes.com/2017/09/22/opinion/tom-price-private-jets.html'
p10
aS'https://www.nytimes.com/2017/09/22/opinion/mexico-earthquake-warning-system.html'
p11
aS'https://www.nytimes.com/2017/09/22/opinion/roma-stereotypes.html'
p12
aS'https://www.nytimes.com/2017/09/22/opinion/jake-lamotta-boxing-death-.html'
p13
aS'https://www.nytimes.com/2017/09/22/opinion/world-hunger-united-nations.html'
p14
aS'https://www.nytimes.com/2017/09/21/opinion/tax-cuts-for-the-rich-by-another-name.html'
p15
aS'https://www.nytimes.com/2017/09/21/opinion/moscows-monument-to-murder.html'
p16
aS'https://www.nytimes.com/2017/09/20/opinion/college-racial-income-gap.html'
p17
aS'https://www.nytimes.com/2017/09/19/opinion/editorials/trump-un-address-north-korea.html'
p18
aS'https://www.nytimes.com/2017/09/19/opinion/editorials/republican-healthcare-graham-cassidy.html'
p19
aS'https://www.nytimes.com/2017/09/19/opinion/editorials/ferguson-racism-fred-watson.html'
p20
aS'https://www.nytimes.com/2017/09/25/opinion/editorials/trump-travel-ban.html'
p21
aS'https://www.nytimes.com/2017/09/25/opinion/anthony-weiner-sentencing-sexting.html'
p22
aS'https://www.nytimes.com/2017/09/25/opinion/migrants-italy-europe.html'
p23
aS'https://www.nytimes.com/2017/09/24/opinion/nfl-football-patriots-take-a-knee.html'
p24
aS'https://www.nytimes.com/2017/09/24/opinion/editorials/puerto-rico-maria-hurricane.html'
p25
aS'https://www.nytimes.com/2017/09/23/opinion/trump-curry-kaepernick-lebron.html'
p26
aS'https://www.nytimes.com/2017/09/23/opinion/sunday/starry-night-van-gogh-selfies.html'
p27
aS'https://www.nytimes.com/2017/09/23/opinion/sunday/trump-trust-iran-korea.html'
p28
aS'https://www.nytimes.com/2017/09/22/opinion/facebook-mark-zuckerberg-political-ads.html'
p29
aS'https://www.nytimes.com/2017/09/22/opinion/tom-price-private-jets.html'
p30
aS'https://www.nytimes.com/2017/09/22/opinion/mexico-earthquake-warning-system.html'
p31
aS'https://www.nytimes.com/2017/09/22/opinion/roma-stereotypes.html'
p32
aS'https://www.nytimes.com/2017/09/22/opinion/jake-lamotta-boxing-death-.html'
p33
aS'https://www.nytimes.com/2017/09/22/opinion/world-hunger-united-nations.html'
p34
aS'https://www.nytimes.com/2017/09/21/opinion/tax-cuts-for-the-rich-by-another-name.html'
p35
aS'https://www.nytimes.com/2017/09/21/opinion/moscows-monument-to-murder.html'
p36
aS'https://www.nytimes.com/2017/09/20/opinion/college-racial-income-gap.html'
p37
aS'https://www.nytimes.com/2017/09/19/opinion/editorials/trump-un-address-north-korea.html'
p38
aS'https://www.nytimes.com/2017/09/19/opinion/editorials/republican-healthcare-graham-cassidy.html'
p39
aS'https://www.nytimes.com/2017/09/19/opinion/editorials/ferguson-racism-fred-watson.html'
p40
a.