(lp0
S'https://www.nytimes.com/2017/09/12/opinion/want-to-make-a-deal-mr-trump.html'
p1
aS'https://www.nytimes.com/2017/09/12/opinion/democratic-primary-choices-nyc.html'
p2
aS'https://www.nytimes.com/2017/09/11/opinion/kris-kobach-fraudulent-voters.html'
p3
aS'https://www.nytimes.com/2017/09/11/opinion/cambodia-democracy-hun-sen.html'
p4
aS'https://www.nytimes.com/2017/09/11/opinion/911-medical-examiner-16-years.html'
p5
aS'https://www.nytimes.com/2017/09/09/opinion/sunday/trump-epa-pruitt-science.html'
p6
aS'https://www.nytimes.com/2017/09/08/opinion/hungary-is-making-europes-migrant-crisis-worse.html'
p7
aS'https://www.nytimes.com/2017/09/08/opinion/russia-facebook-twitter-election.html'
p8
aS'https://www.nytimes.com/2017/09/08/opinion/school-lunch-without-shame.html'
p9
aS'https://www.nytimes.com/2017/09/08/opinion/why-the-return-of-bigger-banks-means-bigger-risks-for-everyone-else.html'
p10
aS'https://www.nytimes.com/2017/09/07/opinion/trump-iran-nuclear-deal.html'
p11
aS'https://www.nytimes.com/2017/09/07/opinion/murder-indian-journalist.html'
p12
aS'https://www.nytimes.com/2017/09/06/opinion/trump-strategy-north-korea.html'
p13
aS'https://www.nytimes.com/2017/09/05/opinion/trump-daca-dreamers-rescind.html'
p14
aS'https://www.nytimes.com/2017/09/05/opinion/ny-daily-news-tronc.html'
p15
aS'https://www.nytimes.com/2017/09/05/opinion/myanmar-rohingya-abuse.html'
p16
aS'https://www.nytimes.com/2017/09/05/opinion/endorsement-nicole-malliotakis-mayor.html'
p17
aS'https://www.nytimes.com/2017/09/04/opinion/guatemala-human-rights-morales.html'
p18
aS'https://www.nytimes.com/2017/09/04/opinion/chicago-police-sessions.html'
p19
aS'https://www.nytimes.com/2017/09/02/opinion/sunday/first-lady-melania-trump.html'
p20
aS'https://www.nytimes.com/2017/09/12/opinion/want-to-make-a-deal-mr-trump.html'
p21
aS'https://www.nytimes.com/2017/09/12/opinion/democratic-primary-choices-nyc.html'
p22
aS'https://www.nytimes.com/2017/09/11/opinion/kris-kobach-fraudulent-voters.html'
p23
aS'https://www.nytimes.com/2017/09/11/opinion/cambodia-democracy-hun-sen.html'
p24
aS'https://www.nytimes.com/2017/09/11/opinion/911-medical-examiner-16-years.html'
p25
aS'https://www.nytimes.com/2017/09/09/opinion/sunday/trump-epa-pruitt-science.html'
p26
aS'https://www.nytimes.com/2017/09/08/opinion/hungary-is-making-europes-migrant-crisis-worse.html'
p27
aS'https://www.nytimes.com/2017/09/08/opinion/russia-facebook-twitter-election.html'
p28
aS'https://www.nytimes.com/2017/09/08/opinion/school-lunch-without-shame.html'
p29
aS'https://www.nytimes.com/2017/09/08/opinion/why-the-return-of-bigger-banks-means-bigger-risks-for-everyone-else.html'
p30
aS'https://www.nytimes.com/2017/09/07/opinion/trump-iran-nuclear-deal.html'
p31
aS'https://www.nytimes.com/2017/09/07/opinion/murder-indian-journalist.html'
p32
aS'https://www.nytimes.com/2017/09/06/opinion/trump-strategy-north-korea.html'
p33
aS'https://www.nytimes.com/2017/09/05/opinion/trump-daca-dreamers-rescind.html'
p34
aS'https://www.nytimes.com/2017/09/05/opinion/ny-daily-news-tronc.html'
p35
aS'https://www.nytimes.com/2017/09/05/opinion/myanmar-rohingya-abuse.html'
p36
aS'https://www.nytimes.com/2017/09/05/opinion/endorsement-nicole-malliotakis-mayor.html'
p37
aS'https://www.nytimes.com/2017/09/04/opinion/guatemala-human-rights-morales.html'
p38
aS'https://www.nytimes.com/2017/09/04/opinion/chicago-police-sessions.html'
p39
aS'https://www.nytimes.com/2017/09/02/opinion/sunday/first-lady-melania-trump.html'
p40
a.