(lp0
S'https://www.nytimes.com/2017/09/30/opinion/opioid-addiction-treatment-program.html'
p1
aS'https://www.nytimes.com/2017/09/29/opinion/gerrymandering-supreme-court.html'
p2
aS'https://www.nytimes.com/2017/09/28/opinion/puerto-rico-trump-hurricane-recovery.html'
p3
aS'https://www.nytimes.com/2017/09/28/opinion/editorials/tom-price-plane-trump-cabinet.html'
p4
aS'https://www.nytimes.com/2017/09/28/opinion/ncaa-march-madness-corruption.html'
p5
aS'https://www.nytimes.com/2017/09/28/opinion/saudi-women-behind-the-wheel.html'
p6
aS'https://www.nytimes.com/2017/09/27/opinion/a-boondoggle-masquerading-as-tax-reform.html'
p7
aS'https://www.nytimes.com/2017/09/27/opinion/when-white-supremacists-ruled-washington.html'
p8
aS'https://www.nytimes.com/2017/09/27/opinion/editorials/nra-guns-california-trump.html'
p9
aS'https://www.nytimes.com/2017/09/26/opinion/editorials/dean-skelos-corruption-case-.html'
p10
aS'https://www.nytimes.com/2017/09/26/opinion/kurdistans-dangerous-vote-on-independence.html'
p11
aS'https://www.nytimes.com/2017/09/25/opinion/editorials/trump-travel-ban.html'
p12
aS'https://www.nytimes.com/2017/09/25/opinion/anthony-weiner-sentencing-sexting.html'
p13
aS'https://www.nytimes.com/2017/09/25/opinion/migrants-italy-europe.html'
p14
aS'https://www.nytimes.com/2017/09/24/opinion/nfl-football-patriots-take-a-knee.html'
p15
aS'https://www.nytimes.com/2017/09/24/opinion/editorials/puerto-rico-maria-hurricane.html'
p16
aS'https://www.nytimes.com/2017/09/23/opinion/trump-curry-kaepernick-lebron.html'
p17
aS'https://www.nytimes.com/2017/09/23/opinion/sunday/starry-night-van-gogh-selfies.html'
p18
aS'https://www.nytimes.com/2017/09/23/opinion/sunday/trump-trust-iran-korea.html'
p19
aS'https://www.nytimes.com/2017/09/22/opinion/facebook-mark-zuckerberg-political-ads.html'
p20
aS'https://www.nytimes.com/2017/09/30/opinion/opioid-addiction-treatment-program.html'
p21
aS'https://www.nytimes.com/2017/09/29/opinion/gerrymandering-supreme-court.html'
p22
aS'https://www.nytimes.com/2017/09/28/opinion/puerto-rico-trump-hurricane-recovery.html'
p23
aS'https://www.nytimes.com/2017/09/28/opinion/editorials/tom-price-plane-trump-cabinet.html'
p24
aS'https://www.nytimes.com/2017/09/28/opinion/ncaa-march-madness-corruption.html'
p25
aS'https://www.nytimes.com/2017/09/28/opinion/saudi-women-behind-the-wheel.html'
p26
aS'https://www.nytimes.com/2017/09/27/opinion/a-boondoggle-masquerading-as-tax-reform.html'
p27
aS'https://www.nytimes.com/2017/09/27/opinion/when-white-supremacists-ruled-washington.html'
p28
aS'https://www.nytimes.com/2017/09/27/opinion/editorials/nra-guns-california-trump.html'
p29
aS'https://www.nytimes.com/2017/09/26/opinion/editorials/dean-skelos-corruption-case-.html'
p30
aS'https://www.nytimes.com/2017/09/26/opinion/kurdistans-dangerous-vote-on-independence.html'
p31
aS'https://www.nytimes.com/2017/09/25/opinion/editorials/trump-travel-ban.html'
p32
aS'https://www.nytimes.com/2017/09/25/opinion/anthony-weiner-sentencing-sexting.html'
p33
aS'https://www.nytimes.com/2017/09/25/opinion/migrants-italy-europe.html'
p34
aS'https://www.nytimes.com/2017/09/24/opinion/nfl-football-patriots-take-a-knee.html'
p35
aS'https://www.nytimes.com/2017/09/24/opinion/editorials/puerto-rico-maria-hurricane.html'
p36
aS'https://www.nytimes.com/2017/09/23/opinion/trump-curry-kaepernick-lebron.html'
p37
aS'https://www.nytimes.com/2017/09/23/opinion/sunday/starry-night-van-gogh-selfies.html'
p38
aS'https://www.nytimes.com/2017/09/23/opinion/sunday/trump-trust-iran-korea.html'
p39
aS'https://www.nytimes.com/2017/09/22/opinion/facebook-mark-zuckerberg-political-ads.html'
p40
a.