(lp0
S'https://www.nytimes.com/2017/09/21/opinion/tax-cuts-for-the-rich-by-another-name.html'
p1
aS'https://www.nytimes.com/2017/09/21/opinion/moscows-monument-to-murder.html'
p2
aS'https://www.nytimes.com/2017/09/20/opinion/college-racial-income-gap.html'
p3
aS'https://www.nytimes.com/2017/09/19/opinion/editorials/trump-un-address-north-korea.html'
p4
aS'https://www.nytimes.com/2017/09/19/opinion/editorials/republican-healthcare-graham-cassidy.html'
p5
aS'https://www.nytimes.com/2017/09/19/opinion/editorials/ferguson-racism-fred-watson.html'
p6
aS'https://www.nytimes.com/2017/09/19/opinion/editorials/manhattan-congestion-pricing-traffic.html'
p7
aS'https://www.nytimes.com/2017/09/18/opinion/rohingya-myanmar-military-sanctions.html'
p8
aS'https://www.nytimes.com/2017/09/18/opinion/using-the-epa-to-prop-up-big-coal.html'
p9
aS'https://www.nytimes.com/2017/09/18/opinion/health-care-graham-cassidy.html'
p10
aS'https://www.nytimes.com/2017/09/18/opinion/trump-white-supremacist.html'
p11
aS'https://www.nytimes.com/2017/09/16/opinion/sunday/giancarlo-stanton-baseball-homeruns.html'
p12
aS'https://www.nytimes.com/2017/09/16/opinion/sunday/the-china-puzzle.html'
p13
aS'https://www.nytimes.com/2017/09/15/opinion/trump-daca-immigration-morality.html'
p14
aS'https://www.nytimes.com/2017/09/15/opinion/pier55-diller-floating-park.html'
p15
aS'https://www.nytimes.com/2017/09/15/opinion/senate-blue-slips-republicans.html'
p16
aS'https://www.nytimes.com/2017/09/14/opinion/mnuchin-funds-honeymoon.html'
p17
aS'https://www.nytimes.com/2017/09/14/learning/our-third-annual-student-editorial-cartoon-contest.html'
p18
aS'https://www.nytimes.com/2017/09/14/opinion/kenya-plastic-bag-laws.html'
p19
aS'https://www.nytimes.com/2017/09/13/opinion/nyc-city-council-women.html'
p20
aS'https://www.nytimes.com/2017/09/21/opinion/tax-cuts-for-the-rich-by-another-name.html'
p21
aS'https://www.nytimes.com/2017/09/21/opinion/moscows-monument-to-murder.html'
p22
aS'https://www.nytimes.com/2017/09/20/opinion/college-racial-income-gap.html'
p23
aS'https://www.nytimes.com/2017/09/19/opinion/editorials/trump-un-address-north-korea.html'
p24
aS'https://www.nytimes.com/2017/09/19/opinion/editorials/republican-healthcare-graham-cassidy.html'
p25
aS'https://www.nytimes.com/2017/09/19/opinion/editorials/ferguson-racism-fred-watson.html'
p26
aS'https://www.nytimes.com/2017/09/19/opinion/editorials/manhattan-congestion-pricing-traffic.html'
p27
aS'https://www.nytimes.com/2017/09/18/opinion/rohingya-myanmar-military-sanctions.html'
p28
aS'https://www.nytimes.com/2017/09/18/opinion/using-the-epa-to-prop-up-big-coal.html'
p29
aS'https://www.nytimes.com/2017/09/18/opinion/health-care-graham-cassidy.html'
p30
aS'https://www.nytimes.com/2017/09/18/opinion/trump-white-supremacist.html'
p31
aS'https://www.nytimes.com/2017/09/16/opinion/sunday/giancarlo-stanton-baseball-homeruns.html'
p32
aS'https://www.nytimes.com/2017/09/16/opinion/sunday/the-china-puzzle.html'
p33
aS'https://www.nytimes.com/2017/09/15/opinion/trump-daca-immigration-morality.html'
p34
aS'https://www.nytimes.com/2017/09/15/opinion/pier55-diller-floating-park.html'
p35
aS'https://www.nytimes.com/2017/09/15/opinion/senate-blue-slips-republicans.html'
p36
aS'https://www.nytimes.com/2017/09/14/opinion/mnuchin-funds-honeymoon.html'
p37
aS'https://www.nytimes.com/2017/09/14/learning/our-third-annual-student-editorial-cartoon-contest.html'
p38
aS'https://www.nytimes.com/2017/09/14/opinion/kenya-plastic-bag-laws.html'
p39
aS'https://www.nytimes.com/2017/09/13/opinion/nyc-city-council-women.html'
p40
a.