(lp0
S'https://www.reuters.com/article/us-bitcoin-exchanges-risks-special-repor/special-report-chaos-and-hackers-stalk-investors-on-cryptocurrency-exchanges-idUSKCN1C41AU'
p1
aS'https://www.reuters.com/article/legal-us-usa-court-term/trump-administration-in-spotlight-as-u-s-top-court-returns-idUSKCN1C4208'
p2
aS'https://www.reuters.com/article/us-usa-economy/u-s-consumer-spending-barely-rises-core-inflation-moderates-idUSKCN1C41S1'
p3
aS'https://www.reuters.com/article/us-mideast-crisis-kurds-referendum/iraq-blocks-international-flights-to-kurdistan-in-retaliation-for-independence-vote-idUSKCN1C4113'
p4
aS'https://www.reuters.com/article/us-myanmar-rohingya/more-than-50-rohingya-missing-as-u-s-steps-up-pressure-on-myanmar-idUSKCN1C40DR'
p5
aS'https://www.reuters.com/article/us-apple-cyber/security-firm-finds-some-macs-vulnerable-to-firmware-attacks-idUSKCN1C41P1'
p6
aS'https://www.reuters.com/article/us-palestinians-hamas-reconciliation-ins/how-blood-money-diplomacy-and-desperation-are-reuniting-palestine-idUSKCN1C41HX'
p7
aS'https://www.reuters.com/article/us-usa-cuba/u-s-orders-60-percent-of-staff-out-of-embassy-in-cuba-ap-idUSKCN1C4212'
p8
aS'https://www.reuters.com/article/us-eu-summit/merkel-macron-pledge-to-lead-eu-forward-post-brexit-idUSKCN1C411M'
p9
aS'https://www.reuters.com/article/legal-uk-volkswagen-emissions/vws-dieselgate-bill-hits-30-bln-after-another-charge-idUSKCN1C4271'
p10
a.