(lp0
S'https://www.reuters.com/article/us-usa-trump-sports-nfl/trump-urges-fans-to-consider-nfl-boycott-over-player-anthem-protests-idUSKCN1BZ0HQ'
p1
aS'https://www.reuters.com/article/us-usa-healthcare/republican-bill-to-repeal-obamacare-teeters-on-edge-of-collapse-idUSKCN1C00BT'
p2
aS'https://www.reuters.com/article/us-germany-election/chastened-merkel-braces-for-coalition-tussle-after-vote-idUSKCN1C0096'
p3
aS'https://www.reuters.com/article/legal-us-usa-immigration-trump/trump-slaps-travel-restrictions-on-n-korea-venezuela-in-sweeping-new-ban-idUSKCN1C01FZ'
p4
aS'https://www.reuters.com/article/us-northkorea-missiles-trump-un/trump-tweets-threats-against-north-korea-after-u-n-speech-idUSKCN1BZ02M'
p5
aS'https://www.reuters.com/article/us-target-wages/target-raises-minimum-hourly-wage-to-11-pledges-15-by-end-of-2020-idUSKCN1C01JO'
p6
aS'https://www.reuters.com/article/us-mideast-crisis-kurd-referendum/voting-starts-in-iraqi-kurdistans-independence-referendum-idUSKCN1C00CV'
p7
aS'https://www.reuters.com/article/us-mexico-quake/outside-quake-stricken-mexico-city-most-kids-going-back-to-school-idUSKCN1C00W8'
p8
aS'https://www.reuters.com/article/us-philippines-militants-battle-insight/one-week-to-cross-a-street-how-is-pinned-down-filipino-soldiers-in-marawi-idUSKCN1C00FW'
p9
aS'https://www.reuters.com/article/us-trade-nafta/u-s-to-partially-unveil-key-nafta-proposal-talks-seen-dragging-idUSKCN1BZ0WD'
p10
a.