(lp0
S'https://www.reuters.com/article/us-usa-healthcare/trump-endorses-latest-republican-bill-to-dismantle-obamacare-idUSKCN1BV1LN'
p1
aS'https://www.reuters.com/article/us-usa-fed/fed-conflicted-by-tepid-u-s-inflation-global-economic-rebound-idUSKCN1BV0GJ'
p2
aS'https://www.reuters.com/article/us-northkorea-missiles-russia-exclusive/from-russia-with-fuel-north-korean-ships-may-be-undermining-sanctions-idUSKCN1BV1DC'
p3
aS'https://www.reuters.com/article/us-storm-maria/hurricane-maria-gains-strength-bears-down-on-caribbean-islands-idUSKCN1BT1RW'
p4
aS'https://www.reuters.com/article/us-usa-taser-science-specialreport/special-report-the-garage-science-behind-the-stun-gun-that-changed-policing-idUSKCN1BV1EQ'
p5
aS'https://www.reuters.com/article/us-iran-nuclear-un/trump-signaled-dislike-but-not-demise-of-iran-deal-envoy-idUSKCN1BV1OC'
p6
aS'https://www.reuters.com/article/us-usa-immigration-lawsuit/california-to-file-lawsuit-over-trump-border-wall-idUSKCN1BV1NQ'
p7
aS'https://www.reuters.com/article/us-usa-economy-housing/u-s-existing-home-sales-fall-to-12-month-low-idUSKCN1BV1UR'
p8
aS'https://www.reuters.com/article/us-apple-watch/apple-watch-fails-to-tick-with-reviewers-due-to-cellular-glitch-idUSKCN1BV2I9'
p9
aS'https://www.reuters.com/article/us-mexico-quake/desperate-night-search-for-children-in-mexico-school-ruins-after-quake-idUSKCN1BV0OR'
p10
a.