(lp0
S'https://www.reuters.com/article/us-alabama-election/in-alabama-senate-race-trump-takes-on-republican-anti-establishment-idUSKCN1C114H'
p1
aS'https://www.reuters.com/article/us-northkorea-missiles/north-korea-accuses-u-s-of-declaring-war-says-can-take-countermeasures-idUSKCN1C026A'
p2
aS'https://www.reuters.com/article/us-usa-trump-sports/trump-keeps-attention-on-nfl-dispute-praises-nascar-idUSKCN1C01K0'
p3
aS'https://www.reuters.com/article/us-alibaba-cainiao-investment/alibaba-raising-stake-in-cainiao-to-majority-investing-15-billion-to-grow-logistics-idUSKCN1C10C2'
p4
aS'https://www.reuters.com/article/us-usa-trump-emails/some-trump-advisers-used-private-email-for-government-business-ny-times-idUSKCN1C101M'
p5
aS'https://www.reuters.com/article/us-mideast-crisis-kurds-referendum/iraq-refuses-to-discuss-kurdish-independence-after-referendum-idUSKCN1C1127'
p6
aS'https://www.reuters.com/article/us-global-oil/oil-markets-take-a-breather-after-jump-the-day-before-idUSKCN1C103A'
p7
aS'https://www.reuters.com/article/legal-uk-toshiba-accounting/western-digital-to-seek-injunction-to-block-toshibas-18-bln-chip-unit-sale-idUSKCN1C11E2'
p8
aS'https://www.reuters.com/article/us-mexico-quake/mexico-in-three-day-countdown-to-search-for-earthquake-survivors-idUSKCN1C10UN'
p9
aS'https://www.reuters.com/article/us-equifax-cyber-ceo/equifax-ceo-retires-following-massive-cyber-attack-idUSKCN1C11Q9'
p10
a.