(lp0
S'https://www.reuters.com/article/us-usa-immigration-trump-daca/trump-says-no-deal-made-with-democrats-on-daca-immigrant-children-idUSKCN1BP18F'
p1
aS'https://www.reuters.com/article/us-northkorea-missiles/north-korea-threatens-to-sink-japan-reduce-u-s-to-ashes-and-darkness-idUSKCN1BP0F3'
p2
aS'https://www.reuters.com/article/us-storm-irma-trump/trump-to-visit-hurricane-ravaged-florida-idUSKCN1BP1A8'
p3
aS'https://www.reuters.com/article/us-usa-military-nuclear/under-trump-future-of-u-s-nuclear-arsenal-slowly-taking-shape-idUSKCN1BP04D'
p4
aS'https://www.reuters.com/article/us-aramco-ipo/stock-markets-vie-to-host-saudis-aramco-ipo-idUSKCN1BP1A4'
p5
aS'https://www.reuters.com/article/us-lattice-m-a-canyonbridge-trump/trump-bars-chinese-firm-from-buying-u-s-chipmaker-lattice-idUSKCN1BO2ME'
p6
aS'https://www.reuters.com/article/us-equifax-cyber/equifax-says-web-server-vulnerability-led-to-hack-idUSKCN1BP0CB'
p7
aS'https://www.reuters.com/article/us-china-bitcoin-btcc/bitcoin-exchange-btcchina-to-stop-trading-from-sept-30-idUSKCN1BP1J8'
p8
aS'https://www.reuters.com/article/us-europe-attacks-military-analysis/soldiers-on-europes-streets-dent-natos-defense-edge-idUSKCN1BP1CA'
p9
aS'https://www.reuters.com/article/us-myanmar-rohingya/china-endorses-myanmars-crackdown-u-n-sees-ethnic-cleansing-idUSKCN1BP0E5'
p10
a.