(lp0
S'https://www.reuters.com/article/us-northkorea-missiles/north-korea-fires-missile-from-pyongyang-toward-the-east-south-korea-idUSKCN1BP35B'
p1
aS'https://www.reuters.com/article/us-missouri-crime/missouri-braces-for-verdict-in-murder-trial-of-ex-st-louis-policeman-idUSKCN1BQ161'
p2
aS'https://www.reuters.com/article/us-storm-irma-fed/cash-demand-doubled-for-fed-in-hurricane-hit-florida-idUSKCN1BQ2L2'
p3
aS'https://www.reuters.com/article/us-equifax-cyber-warren/senator-warren-introduces-equifax-bill-launches-industry-probe-idUSKCN1BQ16B'
p4
aS'https://www.reuters.com/article/us-usa-obamacare-virginia/anthem-to-sell-obamacare-health-plans-in-virginias-bare-counties-idUSKCN1BQ2I2'
p5
aS'https://www.reuters.com/article/us-britain-security-london/blast-reported-on-london-underground-train-metro-newspaper-idUSKCN1BQ0S1'
p6
aS'https://www.reuters.com/article/us-awards-emmys-streaming/better-call-netflix-streaming-platforms-poaching-top-tv-talent-idUSKCN1BQ2KE'
p7
aS'https://www.reuters.com/article/us-autos-selfdriving-analysis/u-s-push-for-self-driving-law-exposes-regulatory-divide-idUSKCN1BQ24J'
p8
aS'https://www.reuters.com/article/us-usa-harvard/harvard-university-withdraws-fellowship-invitation-to-chelsea-manning-idUSKCN1BQ0IV'
p9
aS'https://www.reuters.com/article/us-space-saturn-cassini/fiery-farewell-to-cap-cassini-spacecrafts-13-year-saturn-mission-idUSKCN1BQ0FE'
p10
a.