(lp0
S'https://www.reuters.com/article/us-usa-security-kaspersky/u-s-government-orders-removal-of-kaspersky-it-products-cites-russia-idUSKCN1BO2CH'
p1
aS'https://www.reuters.com/article/us-washington-school-shooting/shots-fired-at-high-school-near-spokane-washington-police-idUSKCN1BO2FM'
p2
aS'https://www.reuters.com/article/us-usa-healthcare/liberal-conservative-lawmakers-offer-opposing-u-s-healthcare-ideas-idUSKCN1BO2TS'
p3
aS'https://www.reuters.com/article/us-usa-tax/trump-says-tax-meeting-with-senators-highly-productive-white-house-idUSKCN1BO1HM'
p4
aS'https://www.reuters.com/article/us-usa-immigration-border-searches/trump-administration-sued-over-phone-searches-at-u-s-borders-idUSKCN1BO1XG'
p5
aS'https://www.reuters.com/article/us-usa-immigration-visas-exclusive/exclusive-u-s-wont-issue-some-visas-in-four-nations-in-deportation-crackdown-idUSKCN1BO1W4'
p6
aS'https://www.reuters.com/article/us-amazon-mexico-exclusive/exclusive-amazon-plans-mega-warehouse-for-mexico-growth-spurt-idUSKCN1BO1RD'
p7
aS'https://www.reuters.com/article/us-usa-trump-russia-flynn/democrats-investigating-whether-flynn-promoted-reactor-project-as-trump-aide-idUSKCN1BO19G'
p8
aS'https://www.reuters.com/article/us-russia-nato/russias-zapad-war-games-unnerve-the-west-idUSKCN1BO1OG'
p9
aS'https://www.reuters.com/article/us-northkorea-missiles/north-korea-warns-u-s-will-pay-due-price-for-spearheading-u-n-sanctions-idUSKCN1BL12S'
p10
a.