(lp0
S'https://www.reuters.com/article/us-usa-immigration-trump-daca/trump-says-no-deal-made-with-democrats-on-daca-immigrant-children-idUSKCN1BP18F'
p1
aS'https://www.reuters.com/article/us-northkorea-missiles/north-korea-threatens-to-sink-japan-reduce-u-s-to-ashes-and-darkness-idUSKCN1BP0F3'
p2
aS'https://www.reuters.com/article/us-storm-irma-trump/trump-to-visit-hurricane-ravaged-florida-idUSKCN1BP1A8'
p3
aS'https://www.reuters.com/article/us-usa-congress-funding/house-passes-1-2-trillion-bill-to-fund-government-idUSKCN1BP2CV'
p4
aS'https://www.reuters.com/article/us-iran-nuclear-usa/u-s-to-extend-iran-sanctions-relief-under-nuclear-deal-sources-idUSKCN1BP22M'
p5
aS'https://www.reuters.com/article/us-north-carolina-military/army-special-operations-soldiers-injured-in-explosion-in-north-carolina-idUSKCN1BP2HP'
p6
aS'https://www.reuters.com/article/us-mideast-crisis-iraq-attacks/suicide-attacks-kill-at-least-15-in-south-iraqi-city-police-medics-idUSKCN1BP1SN'
p7
aS'https://www.reuters.com/article/us-bluebottle-m-a-nestle/nestle-buys-controlling-stake-in-blue-bottle-coffee-idUSKCN1BP2D7'
p8
aS'https://www.reuters.com/article/us-russia-nato-kremlin/kremlin-accuses-west-of-whipping-up-hysteria-over-russian-war-games-idUSKCN1BP23S'
p9
aS'https://www.reuters.com/article/us-china-bitcoin-btcc/bitcoin-exchange-btcchina-to-stop-trading-from-sept-30-idUSKCN1BP1J8'
p10
a.