(lp0
S'https://www.reuters.com/article/us-northkorea-missiles/north-korea-warns-u-s-will-pay-due-price-for-spearheading-u-n-sanctions-idUSKCN1BL12S'
p1
aS'https://www.reuters.com/article/us-storm-irma/hurricane-irma-barrels-toward-caribbean-southern-united-states-idUSKCN1BG0KL'
p2
aS'https://www.reuters.com/article/us-apple-iphone/apple-set-to-unveil-anniversary-iphone-in-major-product-launch-idUSKCN1BN0LV'
p3
aS'https://www.reuters.com/article/us-autoshow-frankfurt-electrics/carmakers-face-electric-reality-as-combustion-engine-outlook-dims-idUSKCN1BN00X'
p4
aS'https://www.reuters.com/article/us-usa-trump-iran-exclusive/exclusive-trump-to-weigh-more-aggressive-u-s-strategy-on-iran-idUSKCN1BM2WJ'
p5
aS'https://www.reuters.com/article/us-equifax-cyber-lawsuits/lawsuits-against-equifax-pile-up-idUSKCN1BM2E3'
p6
aS'https://www.reuters.com/article/us-usa-tax/trump-to-meet-senators-in-bipartisan-push-on-taxes-idUSKCN1BN1L6'
p7
aS'https://www.reuters.com/article/us-awards-emmys-trump/trumps-white-house-a-gift-or-a-curse-for-tv-comics-idUSKCN1BN1G1'
p8
aS'https://www.reuters.com/article/us-russia-election-fraud-exclusive/exclusive-at-a-russian-polling-station-phantom-voters-cast-ballots-for-the-tsar-idUSKCN1BN15P'
p9
aS'https://www.reuters.com/article/us-myanmar-rohingya/myanmar-faces-mounting-pressure-over-rohingya-refugee-exodus-idUSKCN1BN0AQ'
p10
a.