(lp0
S'https://www.reuters.com/article/us-usa-puertorico/trump-orders-shipping-restrictions-lifted-for-storm-hit-puerto-rico-idUSKCN1C31S8'
p1
aS'https://www.reuters.com/article/us-northkorea-missiles-southkorea/south-korea-expects-more-north-korea-provocations-mid-october-idUSKCN1C3073'
p2
aS'https://www.reuters.com/article/us-usa-trump-russia-tech/house-panel-to-hold-hearing-with-tech-companies-on-russia-idUSKCN1C234Q'
p3
aS'https://www.reuters.com/article/us-usa-northkorea-detainee/u-s-student-held-in-north-korea-died-of-oxygen-starved-brain-ohio-coroner-idUSKCN1C22XM'
p4
aS'https://www.reuters.com/article/us-saudi-aramco-insight/aramco-listing-reshapes-saudi-arabias-opec-oil-policy-idUSKCN1C31H0'
p5
aS'https://www.reuters.com/article/us-roku-ipo/video-streamer-roku-raises-219-million-in-ipo-prices-at-top-of-range-idUSKCN1C31HO'
p6
aS'https://www.reuters.com/article/us-mideast-crisis-kurds-referendum/turkey-raises-oil-threat-after-iraqi-kurds-back-independence-idUSKCN1C31U8'
p7
aS'https://www.reuters.com/article/us-usa-economy-gdp/u-s-second-quarter-gdp-growth-revised-up-to-3-1-percent-idUSKCN1C31QR'
p8
aS'https://www.reuters.com/article/us-philippines-usa-duterte/philippine-leader-changes-his-tune-with-praise-for-u-s-allies-idUSKCN1C31KB'
p9
aS'https://www.reuters.com/article/us-toshiba-accounting/toshiba-signs-deal-to-sell-chip-unit-to-bain-led-group-for-18-billion-idUSKCN1C30P1'
p10
a.