(lp0
S'https://www.reuters.com/article/us-usa-immigration-trump-legal/trumps-new-travel-ban-could-be-harder-to-fight-in-court-experts-idUSKCN1C01O5'
p1
aS'https://www.reuters.com/article/us-usa-stocks/futures-flat-as-investors-await-fed-speakers-idUSKCN1C01FI'
p2
aS'https://www.reuters.com/article/us-usa-trump-sports-nfl/trump-urges-fans-to-consider-nfl-boycott-over-player-anthem-protests-idUSKCN1BZ0HQ'
p3
aS'https://www.reuters.com/article/us-usa-healthcare/republican-bill-to-repeal-obamacare-teeters-on-edge-of-collapse-idUSKCN1C00BT'
p4
aS'https://www.reuters.com/article/us-germany-election/chastened-merkel-braces-for-coalition-tussle-after-vote-idUSKCN1C0096'
p5
aS'https://www.reuters.com/article/us-mideast-crisis-kurd-referendum/voting-starts-in-iraqi-kurdistans-independence-referendum-idUSKCN1C00CV'
p6
aS'https://www.reuters.com/article/us-northkorea-missiles-trump-un/trump-tweets-threats-against-north-korea-after-u-n-speech-idUSKCN1BZ02M'
p7
aS'https://www.reuters.com/article/us-target-wages/target-raises-minimum-hourly-wage-to-11-pledges-15-by-end-of-2020-idUSKCN1C01JO'
p8
aS'https://www.reuters.com/article/us-deloitte-cyber/deloitte-hit-by-sophisticated-cyber-attack-guardian-newspaper-idUSKCN1C01PB'
p9
aS'https://www.reuters.com/article/us-storm-maria/travelers-swamp-puerto-ricos-main-airport-dam-on-verge-of-collapse-idUSKCN1C01TJ'
p10
a.