(lp0
S'https://www.reuters.com/article/us-storm-irma/hurricane-irma-barrels-toward-caribbean-southern-united-states-idUSKCN1BG0KL'
p1
aS'https://www.reuters.com/article/us-usa-court-immigration/trump-administration-asks-top-u-s-court-to-lift-refugee-ban-limits-idUSKCN1BM24Q'
p2
aS'https://www.reuters.com/article/us-usa-trump-russia-investigations/republican-attempt-to-deflect-trump-russia-probes-could-backfire-sources-idUSKCN1BM25G'
p3
aS'https://www.reuters.com/article/us-apple-iphone-china/lucky-8-1000-price-tag-dampens-iphone-enthusiasm-in-china-idUSKCN1BM0LN'
p4
aS'https://www.reuters.com/article/us-northkorea-missiles/north-korea-warns-u-s-will-pay-due-price-for-spearheading-u-n-sanctions-idUSKCN1BL12S'
p5
aS'https://www.reuters.com/article/us-equifax-cyber-lawsuits/lawsuits-against-equifax-pile-up-idUSKCN1BM2E3'
p6
aS'https://www.reuters.com/article/us-usa-vehicles-suit/states-suing-trump-administration-over-delayed-fuel-economy-fines-idUSKCN1BM1VP'
p7
aS'https://www.reuters.com/article/us-bp-midstream-partners-ipo/bp-files-for-ipo-of-u-s-pipeline-assets-idUSKCN1BM1N8'
p8
aS'https://www.reuters.com/article/us-venezuela-politics-un/u-n-rights-boss-sees-possible-crimes-against-humanity-in-venezuela-idUSKCN1BM0UI'
p9
aS'https://www.reuters.com/article/us-usa-sept11-afghanistan/afghanistan-will-never-again-be-militant-sanctuary-u-s-ambassador-idUSKCN1BM20Z'
p10
a.