(lp0
S'https://www.reuters.com/article/us-usa-tax/trumps-tax-plan-to-propose-deep-u-s-rate-cuts-lacks-revenue-details-idUSKCN1C213M'
p1
aS'https://www.reuters.com/article/us-usa-trump-russia-tech/house-panel-to-hold-hearing-with-tech-companies-on-russia-idUSKCN1C234Q'
p2
aS'https://www.reuters.com/article/us-boeing-bombardier/quebec-britain-threaten-retaliation-after-bombardier-tariffs-idUSKCN1C22QB'
p3
aS'https://www.reuters.com/article/us-california-politics/california-moves-presidential-primary-for-bigger-say-in-candidate-choice-idUSKCN1C23A5'
p4
aS'https://www.reuters.com/article/us-afghanistan-security-mattis/rockets-explode-at-kabul-airport-after-mattis-arrives-in-afghanistan-no-casualties-police-idUSKCN1C20RI'
p5
aS'https://www.reuters.com/article/us-usa-puertorico/with-fuel-and-water-scarce-stricken-puerto-rico-presses-for-shipping-waiver-idUSKCN1C22G9'
p6
aS'https://www.reuters.com/article/us-usa-northkorea-detainee/u-s-student-held-in-north-korea-died-of-oxygen-starved-brain-ohio-coroner-idUSKCN1C22XM'
p7
aS'https://www.reuters.com/article/us-equifax-cyber-new-york-exclusive/exclusive-n-y-regulator-subpoenas-equifax-over-massive-breach-idUSKCN1C22LU'
p8
aS'https://www.reuters.com/article/us-venezuela-politics/venezuelan-leader-blasts-rajoy-mocks-trump-idUSKCN1C22TL'
p9
aS'https://www.reuters.com/article/us-microsoft-nadella-reuters-newsmaker/microsoft-search-engine-bing-to-focus-on-pc-search-market-ceo-idUSKCN1C235Y'
p10
a.