(lp0
S'https://www.reuters.com/article/us-northkorea-missiles-usa-mattis/mattis-hints-at-military-options-on-north-korea-no-details-idUSKCN1BT2IY'
p1
aS'https://www.reuters.com/article/us-northkorea-missiles/china-russia-begin-naval-drills-near-north-korea-idUSKCN1BT0CK'
p2
aS'https://www.reuters.com/article/us-un-usa-trump/trump-says-u-n-has-not-met-full-potential-idUSKCN1BT1QI'
p3
aS'https://www.reuters.com/article/us-usa-consumers-loans/u-s-cracks-down-on-debt-collection-of-private-student-loans-idUSKCN1BT26G'
p4
aS'https://www.reuters.com/article/us-myanmar-rohingya/rights-group-urges-new-myanmar-sanctions-over-rohingya-crisis-idUSKCN1BT08O'
p5
aS'https://www.reuters.com/article/us-britain-eu-jobs-exclusive/reuters-survey-10000-uk-finance-jobs-affected-in-brexits-first-wave-idUSKCN1BT1EU'
p6
aS'https://www.reuters.com/article/us-russia-nato-wargames-putin/putin-to-watch-parachute-drop-part-of-war-games-that-have-rattled-west-idUSKCN1BT1E8'
p7
aS'https://www.reuters.com/article/us-usa-climate-cohn/trump-adviser-cohn-reaffirms-u-s-climate-deal-stance-in-new-york-idUSKCN1BT1K3'
p8
aS'https://www.reuters.com/article/us-missouri-crime/u-s-will-not-seek-civil-rights-charges-for-ex-st-louis-cop-idUSKCN1BT1YC'
p9
aS'https://www.reuters.com/article/us-storm-maria/hurricane-maria-gains-strength-bears-down-on-caribbean-islands-idUSKCN1BT1RW'
p10
a.