(lp0
S'https://www.reuters.com/article/us-un-assembly-trump/in-first-speech-at-u-n-trump-to-single-out-north-korea-iran-idUSKCN1BU0B3'
p1
aS'https://www.reuters.com/article/us-myanmar-rohingya-suukyi/myanmars-suu-kyi-condemns-all-rights-violations-in-rakhine-state-idUSKCN1BU0C5'
p2
aS'https://www.reuters.com/article/us-usa-opioids-budgets-insight/unbudgeted-how-the-opioid-crisis-is-blowing-a-hole-in-small-town-americas-finances-idUSKCN1BU16F'
p3
aS'https://www.reuters.com/article/us-missouri-crime/st-louis-mayor-to-meet-with-protesters-after-nights-of-violence-idUSKCN1BU1CG'
p4
aS'https://www.reuters.com/article/us-toys-r-us-bankruptcy-toymakers/toy-companies-shares-fall-on-concerns-of-toys-r-us-bankruptcy-idUSKCN1BT2AV'
p5
aS'https://www.reuters.com/article/us-kohl-s-products-amazon-com/kohls-to-accept-amazon-returns-in-82-stores-idUSKCN1BU1G1'
p6
aS'https://www.reuters.com/article/us-britain-eu-may/taking-back-control-britains-may-to-make-high-stakes-brexit-speech-idUSKCN1BU1KU'
p7
aS'https://www.reuters.com/article/us-storm-maria/hurricane-maria-gains-strength-bears-down-on-caribbean-islands-idUSKCN1BT1RW'
p8
aS'https://www.reuters.com/article/us-monsanto-m-a-bayer-deadline/bayer-says-needs-more-time-for-monsanto-deal-approval-idUSKCN1BU0V5'
p9
aS'https://www.reuters.com/article/us-japan-energy-revolution/quiet-energy-revolution-underway-in-japan-as-dozens-of-towns-go-off-the-grid-idUSKCN1BU0UT'
p10
a.