(lp0
S'https://www.reuters.com/article/us-un-usa-trump/trump-says-u-n-has-not-met-full-potential-idUSKCN1BT1QI'
p1
aS'https://www.reuters.com/article/us-northkorea-missiles/china-russia-begin-naval-drills-near-north-korea-idUSKCN1BT0CK'
p2
aS'https://www.reuters.com/article/us-britain-eu-jobs-exclusive/reuters-survey-10000-uk-finance-jobs-affected-in-brexits-first-wave-idUSKCN1BT1EU'
p3
aS'https://www.reuters.com/article/us-usa-climate-cohn/trump-adviser-cohn-reaffirms-u-s-climate-deal-stance-in-new-york-idUSKCN1BT1K3'
p4
aS'https://www.reuters.com/article/us-iran-nuclear/u-s-and-iran-argue-over-inspections-at-nuclear-watchdog-meeting-idUSKCN1BT1GI'
p5
aS'https://www.reuters.com/article/us-storm-maria/hurricane-maria-gains-strength-bears-down-on-caribbean-islands-idUSKCN1BT1RW'
p6
aS'https://www.reuters.com/article/us-missouri-crime/missouri-braces-for-verdict-in-murder-trial-of-ex-st-louis-policeman-idUSKCN1BQ161'
p7
aS'https://www.reuters.com/article/us-usa-immigration-lawsuit/six-dreamers-sue-trump-administration-over-daca-decision-idUSKCN1BT14F'
p8
aS'https://www.reuters.com/article/us-russia-nato-wargames-putin/putin-to-watch-parachute-drop-part-of-war-games-that-have-rattled-west-idUSKCN1BT1E8'
p9
aS'https://www.reuters.com/article/us-insurance-technology/from-grudge-to-nudge-tech-firms-help-insurers-shift-gear-idUSKCN1BT0VC'
p10
a.