(lp0
S'https://www.reuters.com/article/us-trump-effect-deregulation/health-and-safety-rules-targeted-as-trump-begins-to-slash-red-tape-idUSKCN1C619Q'
p1
aS'https://www.reuters.com/article/us-usa-court-labor/u-s-supreme-court-back-to-work-with-major-employment-dispute-idUSKCN1C61BN'
p2
aS'https://www.reuters.com/article/us-mideast-crisis-hezbollah-israel/hezbollah-says-israel-pushing-region-to-war-idUSKCN1C6136'
p3
aS'https://www.reuters.com/article/us-usa-china-northkorea/tillerson-in-china-as-u-s-presses-north-korean-economic-squeeze-idUSKCN1C435K'
p4
aS'https://www.reuters.com/article/us-spain-politics-catalonia/catalans-form-pre-dawn-queues-to-vote-in-banned-referendum-idUSKCN1C60YA'
p5
aS'https://www.reuters.com/article/us-usa-puertorico-trump/trump-accuses-san-juan-mayor-of-poor-leadership-idUSKCN1C50GQ'
p6
aS'https://www.reuters.com/article/us-britain-eu-may/britain-is-working-on-plan-for-disorderly-brexit-pm-may-says-idUSKCN1C615K'
p7
aS'https://www.reuters.com/article/us-china-anniversary-hongkong/tens-of-thousands-march-to-defend-hong-kongs-rule-of-law-against-china-idUSKCN1C6196'
p8
aS'https://www.reuters.com/article/us-usa-trump-nfl/trump-says-very-important-nfl-players-stand-for-national-anthem-sunday-idUSKCN1C60YG'
p9
aS'https://www.reuters.com/article/us-japan-election-rating/disapproval-rating-for-japan-pm-abe-exceeds-support-kyodo-poll-idUSKCN1C613F'
p10
a.