(lp0
S'https://www.reuters.com/article/us-northkorea-missiles/north-korea-warns-u-s-will-pay-due-price-for-spearheading-u-n-sanctions-idUSKCN1BL12S'
p1
aS'https://www.reuters.com/article/us-usa-trump-russia-flynn/democrats-investigating-whether-flynn-promoted-reactor-project-as-trump-aide-idUSKCN1BO19G'
p2
aS'https://www.reuters.com/article/us-usa-congress-hategroups/congress-votes-to-call-on-trump-to-denounce-hate-groups-idUSKCN1BO0DG'
p3
aS'https://www.reuters.com/article/us-usa-court-immigration/hawaii-urges-u-s-top-court-not-to-lift-trump-refugee-ban-curbs-idUSKCN1BN1U2'
p4
aS'https://www.reuters.com/article/us-usa-tax/trump-says-tax-meeting-with-senators-highly-productive-white-house-idUSKCN1BO1HM'
p5
aS'https://www.reuters.com/article/us-usa-rights-magnitsky/rights-groups-target-police-spy-chiefs-globally-under-new-u-s-law-idUSKCN1BO126'
p6
aS'https://www.reuters.com/article/us-myanmar-rohingya/myanmars-suu-kyi-to-skip-u-n-general-assembly-amid-rohingya-crisis-idUSKCN1BO0B1'
p7
aS'https://www.reuters.com/article/us-syria-russia-wheat/exclusive-syria-calls-off-mysterious-million-tonne-russian-wheat-deal-idUSKCN1BO10S'
p8
aS'https://www.reuters.com/article/us-vietnam-security/exclusive-scandal-hit-vietnam-official-had-been-cleared-by-previous-government-idUSKCN1BO0T7'
p9
aS'https://www.reuters.com/article/us-italy-concert-robot/yumi-the-robot-conducts-verdi-with-italian-orchestra-idUSKCN1BO0V2'
p10
a.