(lp0
S'https://www.reuters.com/article/us-usa-puertorico-trump-response/trump-defends-federal-response-in-puerto-rico-as-criticism-mounts-idUSKCN1C61NP'
p1
aS'https://www.reuters.com/article/us-spain-politics-catalonia/catalans-form-pre-dawn-queues-to-vote-in-banned-referendum-idUSKCN1C60YA'
p2
aS'https://www.reuters.com/article/us-northkorea-missiles-trump/trump-tells-top-u-s-diplomat-dont-waste-time-talking-to-north-korea-idUSKCN1C61J0'
p3
aS'https://www.reuters.com/article/us-usa-trump-nfl/trump-says-very-important-nfl-players-stand-for-national-anthem-sunday-idUSKCN1C60YG'
p4
aS'https://www.reuters.com/article/us-usa-economy-taxes/u-s-treasury-chief-says-planned-tax-cuts-will-not-benefit-wealthy-idUSKCN1C61EG'
p5
aS'https://www.reuters.com/article/us-france-security-marseille/french-army-shoots-man-dead-after-he-kills-passer-by-at-train-station-police-source-idUSKCN1C61DC'
p6
aS'https://www.reuters.com/article/us-trump-effect-deregulation/health-and-safety-rules-targeted-as-trump-begins-to-slash-red-tape-idUSKCN1C619Q'
p7
aS'https://www.reuters.com/article/us-canada-attacks/canada-police-probe-edmonton-stabbing-vehicle-attacks-as-acts-of-terrorism-idUSKCN1C61FP'
p8
aS'https://www.reuters.com/article/us-global-markets/euro-wobbles-briefly-on-spanish-vote-china-data-a-boon-idUSKCN1C61WV'
p9
aS'https://www.reuters.com/article/us-usa-trump-expenses/mnuchin-says-no-regrets-over-government-plane-use-idUSKCN1C61PT'
p10
a.