(lp0
S'https://www.reuters.com/article/us-sec-cyber-weaknesses-exclusive/exclusive-u-s-homeland-security-found-sec-had-critical-cyber-weaknesses-in-january-idUSKCN1BW27P'
p1
aS'https://www.reuters.com/article/us-northkorea-missiles-usa/trump-to-make-north-korea-sanctions-announcement-not-on-oil-official-idUSKCN1BW1ZZ'
p2
aS'https://www.reuters.com/article/us-usa-healthcare/u-s-vice-president-republicans-close-on-healthcares-last-chance-idUSKCN1BW24G'
p3
aS'https://www.reuters.com/article/us-mideast-crisis-syria-russia/russia-warns-u-s-it-will-target-u-s-backed-fighters-in-syria-if-provoked-idUSKCN1BW14U'
p4
aS'https://www.reuters.com/article/us-turkey-usa-erdogan-exlusive/exclusive-turkey-to-deploy-troops-inside-syrias-idlib-erdogan-idUSKCN1BW2PT'
p5
aS'https://www.reuters.com/article/us-wells-fargo-accounts-sloan/wells-fargo-ceo-due-to-testify-before-senate-banking-panel-october-3-idUSKCN1BW1R5'
p6
aS'https://www.reuters.com/article/us-csx-disruptions-exclusive/exclusive-persistent-rail-service-disruptions-dog-csx-customers-idUSKCN1BW2TO'
p7
aS'https://www.reuters.com/article/us-usa-fed/yellens-stock-rises-as-she-leads-fed-from-crisis-era-policy-idUSKCN1BW2LT'
p8
aS'https://www.reuters.com/article/us-mexico-quake/mexico-searches-for-earthquake-survivors-against-increasing-odds-idUSKCN1BW0YK'
p9
aS'https://www.reuters.com/article/us-storm-maria/hurricane-maria-gains-strength-bears-down-on-caribbean-islands-idUSKCN1BT1RW'
p10
a.