(lp0
S'https://www.nytimes.com/interactive/2017/09/30/us/24-hours-in-puerto-rico-after-hurricane-maria.html'
p1
aS'https://www.nytimes.com/2017/09/30/us/politics/trump-puerto-rico-mayor.html'
p2
aS'https://www.nytimes.com/2017/09/30/opinion/hugh-hefner.html'
p3
aS'https://www.nytimes.com/2017/09/30/world/asia/us-north-korea-tillerson.html'
p4
aS'https://www.nytimes.com/2017/09/30/opinion/democrats-2018-midterm-election.html'
p5
aS'https://www.nytimes.com/2017/09/29/opinion/sunday/dating-age-gap.html'
p6
aS'https://www.nytimes.com/2017/09/30/obituaries/monty-hall-dead-lets-make-a-deal.html'
p7
aS'https://www.nytimes.com/2017/09/29/us/politics/tom-price-trump-hhs.html'
p8
aS'https://www.nytimes.com/2017/09/30/us/lin-manuel-miranda-trump-hurricane.html'
p9
aS'https://www.nytimes.com/2017/09/29/health/chlamydia-syphilis-gonorrhea.html'
p10
a.