(lp0
S'https://www.wsj.com/articles/voters-turn-out-in-catalonia-for-independence-referendum-1506838287'
p1
aS'https://www.wsj.com/articles/trump-tells-tillerson-talking-to-north-korea-is-a-waste-of-time-1506876186'
p2
aS'https://www.wsj.com/articles/at-the-center-of-the-equifax-mess-its-top-lawyer-1506873600'
p3
aS'https://www.wsj.com/articles/hedge-funds-aint-dead-yet-1506859200'
p4
aS'https://www.wsj.com/articles/in-puerto-rico-a-beachside-town-suffers-in-solitude-1506884075'
p5
aS'https://www.wsj.com/articles/trump-administration-officials-defend-gop-tax-plan-1506890066'
p6
aS'https://www.wsj.com/articles/u-s-weighs-fate-of-taliban-political-office-prompting-internal-objection-1506877917'
p7
aS'https://www.wsj.com/articles/el-faro-captains-mistakes-led-to-its-sinking-coast-guard-says-1506893149'
p8
aS'https://www.wsj.com/articles/kim-jong-uns-nephew-was-in-danger-after-fathers-killing-north-korean-group-says-1506861913'
p9
aS'https://www.wsj.com/articles/facebook-is-still-in-denial-about-its-biggest-problem-1506855607'
p10
a.