(lp0
S'https://www.wsj.com/articles/trump-meets-with-kevin-warsh-about-fed-chairman-job-1506692761'
p1
aS'https://www.wsj.com/articles/republican-tax-plan-quickly-hits-first-hurdle-1506638523'
p2
aS'https://www.wsj.com/articles/how-does-the-trump-tax-plan-affect-you-wsj-answers-your-questions-1506677401'
p3
aS'https://www.wsj.com/articles/elon-musk-projects-first-private-trips-to-mars-by-middle-of-next-decade-1506675589'
p4
aS'https://www.wsj.com/articles/myanmar-refugees-tell-of-atrocities-a-soldier-cut-his-throat-1506677403'
p5
aS'https://www.wsj.com/articles/u-s-to-reduce-staffing-at-embassy-in-cuba-in-response-to-mysterious-attacks-1506695976'
p6
aS'https://www.wsj.com/articles/food-fuel-and-medical-supplies-slowly-distributed-across-puerto-rico-1506622283'
p7
aS'https://www.wsj.com/articles/volkswagen-to-take-new-2-9-billion-charge-from-diesel-scandal-1506674433'
p8
aS'https://www.wsj.com/articles/tom-price-to-reimburse-government-for-cost-of-private-jets-1506635688'
p9
aS'https://www.wsj.com/articles/merck-abandons-new-hepatitis-c-drugs-amid-crowded-market-1506690197'
p10
a.