(lp0
S'https://www.nytimes.com/2017/09/27/us/politics/trump-tax-cut-plan-middle-class-deficit.html'
p1
aS'https://www.nytimes.com/2017/09/27/obituaries/hugh-hefner-dead.html'
p2
aS'https://www.nytimes.com/2017/09/27/business/media/paul-horner-dead-fake-news.html'
p3
aS'https://www.nytimes.com/2017/09/27/magazine/donald-trump-jrs-great-escape.html'
p4
aS'https://www.nytimes.com/2017/09/25/opinion/colin-kaepernick-football-protests.html'
p5
aS'https://www.nytimes.com/2017/09/26/us/politics/roy-moore-alabama-senate.html'
p6
aS'https://www.nytimes.com/2017/09/27/us/obama-malia-harvard.html'
p7
aS'https://www.nytimes.com/2017/09/26/world/middleeast/saudi-arabia-women-drive.html'
p8
aS'https://www.nytimes.com/2017/09/26/magazine/how-fake-news-turned-a-small-town-upside-down.html'
p9
aS'https://www.nytimes.com/interactive/2017/09/27/us/politics/six-charts-to-explain-the-republican-tax-plan.html'
p10
a.