(lp0
S'https://www.washingtonpost.com/local/obituaries/hugh-hefner-founder-of-playboy-magazine-dies-at-91/2017/09/27/0560ae1a-a3fe-11e7-ade1-76d061d56efa_story.html'
p1
aS'https://www.washingtonpost.com/news/arts-and-entertainment/wp/2017/09/28/from-actors-to-civil-rights-leaders-playboys-hugh-hefner-remembered/'
p2
aS'http://www.washingtonpost.com/lifestyle/playboy-magazine-founder-hugh-hefner-passes-away-at-91/2017/09/28/a845ec68-a402-11e7-b14f-f41773cd5a14_gallery.html'
p3
aS'https://www.washingtonpost.com/news/fact-checker/wp/2017/09/28/fact-checking-president-trumps-tax-speech-in-indianapolis/'
p4
aS'https://www.washingtonpost.com/politics/trump-travels-to-indiana-to-sell-his-tax-plan-but-leaves-his-usual-zeal-at-home/2017/09/27/09516a54-a3a0-11e7-b14f-f41773cd5a14_story.html'
p5
aS'https://www.washingtonpost.com/business/economy/gop-tax-document-reveals-plan-for-massive-tax-cuts-preserves-key-deductions/2017/09/27/684ea40e-a387-11e7-ade1-76d061d56efa_story.html'
p6
aS'https://www.washingtonpost.com/politics/alabama-defeat-leaves-trump-badly-weakened-isolated-amid-mounting-challenges/2017/09/27/5983f748-a39c-11e7-b14f-f41773cd5a14_story.html'
p7
aS'https://www.washingtonpost.com/politics/can-the-gop-ever-finesse-the-contradictions-in-their-coalition/2017/09/27/8e54ee44-a3a3-11e7-b573-8ec86cdfe1ed_story.html'
p8
aS'https://www.washingtonpost.com/national/why-cant-we-get-out-of-here-airports-in-puerto-rico-other-islands-damaged-and-slow-to-recover/2017/09/27/44d83cb4-a2e8-11e7-8cfe-d5b912fabc99_story.html'
p9
aS'https://www.washingtonpost.com/news/powerpost/paloma/daily-202/2017/09/28/daily-202-trump-s-katrina-influx-of-puerto-ricans-after-hurricane-maria-could-tip-florida-toward-democrats/59cc037c30fb0468cea81c2f/'
p10
a.