(lp0
S'https://www.nytimes.com/2017/09/25/opinion/colin-kaepernick-football-protests.html'
p1
aS'https://www.nytimes.com/2017/09/25/us/politics/private-email-trump-kushner-bannon.html'
p2
aS'https://www.nytimes.com/2017/09/25/world/asia/trump-north-korea.html'
p3
aS'https://www.nytimes.com/2017/09/25/sports/nfl-owners-unity-protests.html'
p4
aS'https://www.nytimes.com/2017/09/25/nyregion/anthony-weiner-sentencing-prison-sexting-teenager.html'
p5
aS'https://www.nytimes.com/2017/09/25/upshot/how-did-marriage-become-a-mark-of-privilege.html'
p6
aS'https://www.nytimes.com/2017/09/24/us/politics/new-order-bars-almost-all-travel-from-seven-countries.html'
p7
aS'https://www.nytimes.com/2017/09/24/opinion/dying-art-of-disagreement.html'
p8
aS'https://www.nytimes.com/2017/09/24/us/politics/trump-divisiveness.html'
p9
aS'https://www.nytimes.com/2017/09/25/sports/football/cowboys-cardinals-anthem-protest.html'
p10
a.