(lp0
S'https://www.washingtonpost.com/powerpost/senate-gop-effort-to-unwind-the-affordable-care-act-faces-critical-test-tuesday/2017/09/26/097b2dc2-a25f-11e7-b14f-f41773cd5a14_story.html'
p1
aS'https://www.washingtonpost.com/news/powerpost/wp/2017/09/26/with-lower-stakes-sanders-and-klobuchar-debate-gop-repeal-bills-sponsors-on-cnn/'
p2
aS'https://www.washingtonpost.com/powerpost/bill-cassidy-the-public-face-of-a-doomed-health-care-bill/2017/09/25/4e00af46-9fa1-11e7-8ea1-ed975285475e_story.html'
p3
aS'https://www.washingtonpost.com/news/the-switch/wp/2017/09/26/equifax-ceo-retires-following-massive-data-breach/'
p4
aS'https://www.washingtonpost.com/news/early-lead/wp/2017/09/25/cowboys-players-take-a-knee-with-owner-jerry-jones-before-standing-for-anthem/'
p5
aS'https://www.washingtonpost.com/politics/trump-has-picked-fights-over-the-flag-before-but-this-time-was-different/2017/09/25/608a6d80-a20a-11e7-8cfe-d5b912fabc99_story.html'
p6
aS'https://www.washingtonpost.com/news/arts-and-entertainment/wp/2017/09/26/late-night-hosts-mock-trumps-nfl-feud-how-can-one-person-be-on-the-wrong-side-of-everything/'
p7
aS'https://www.washingtonpost.com/news/post-politics/wp/2017/09/25/trump-declares-puerto-is-in-deep-trouble-as-questions-mount-about-his-commitment/'
p8
aS'https://www.washingtonpost.com/business/technology/russian-operatives-used-facebook-ads-to-exploit-divisions-over-black-political-activism-and-muslims/2017/09/25/4a011242-a21b-11e7-ade1-76d061d56efa_story.html'
p9
aS'https://www.washingtonpost.com/news/post-nation/wp/2017/09/26/otto-warmbiers-parents-speak-out-north-korea-is-not-a-victim-theyre-terrorists/'
p10
a.