(lp0
S'https://www.washingtonpost.com/world/national-security/trump-administration-changes-travel-ban-countries/2017/09/24/1fef7cfe-a140-11e7-ade1-76d061d56efa_story.html'
p1
aS'https://www.washingtonpost.com/business/economy/obama-tried-to-give-zuckerberg-a-wake-up-call-over-fake-news-on-facebook/2017/09/24/15d19b12-ddac-4ad5-ac6e-ef909e1c1284_story.html'
p2
aS'https://www.washingtonpost.com/powerpost/new-version-of-health-care-bill-will-help-alaska-and-maine--home-of-two-holdout-senators/2017/09/25/24697f62-a188-11e7-b14f-f41773cd5a14_story.html'
p3
aS'https://www.washingtonpost.com/news/powerpost/paloma/the-health-202/2017/09/25/the-health-202-here-s-how-cassidy-and-graham-rejiggered-their-obamacare-overhaul/59c564cf30fb0468cea81ae2/'
p4
aS'https://www.washingtonpost.com/sports/the-nfl-responds-to-trump-by-embracing-its-diversity/2017/09/24/07d57814-a15c-11e7-ade1-76d061d56efa_story.html'
p5
aS'https://www.washingtonpost.com/sports/nfl-players-kneel-during-national-anthem-following-further-trump-tweets/2017/09/24/67415350-a12e-11e7-8cfe-d5b912fabc99_story.html'
p6
aS'https://www.washingtonpost.com/news/politics/wp/2017/09/25/of-course-trumps-outrage-at-the-nfl-protests-had-to-do-with-race/'
p7
aS'https://www.washingtonpost.com/sports/whats-next-in-the-trump-nfl-feud-newly-empowered-players-will-provide-answer/2017/09/25/e89f2208-a1b3-11e7-b14f-f41773cd5a14_story.html'
p8
aS'https://www.washingtonpost.com/news/the-fix/wp/2017/09/25/trumps-problem-isnt-with-athletes-being-political-its-with-athletes-speaking-out-against-racism/'
p9
aS'https://www.washingtonpost.com/news/powerpost/paloma/daily-202/2017/09/25/daily-202-why-the-divider-in-chief-embraces-culture-wars/59c861e430fb0468cea81b10/'
p10
a.