(lp0
S'https://www.wsj.com/articles/u-s-adds-north-korea-venezuela-and-chad-to-list-of-nations-facing-travel-restrictions-1506296004'
p1
aS'https://www.wsj.com/articles/sen-collins-says-she-will-probably-vote-no-on-latest-gop-health-care-bill-1506262125'
p2
aS'https://www.wsj.com/articles/warding-off-decline-hospitals-invest-in-outpatient-clinics-1506331804'
p3
aS'https://www.wsj.com/articles/trump-re-ups-feud-with-pro-athletes-who-protest-1506259612'
p4
aS'https://www.wsj.com/articles/german-results-reflect-european-unease-over-identity-economy-1506288918'
p5
aS'https://www.wsj.com/articles/ge-agrees-to-sell-industrial-unit-to-abb-for-2-6-billion-1506321704'
p6
aS'https://www.wsj.com/articles/china-eyeing-rule-change-that-could-aid-tesla-1506331805'
p7
aS'https://www.wsj.com/articles/study-says-u-s-economic-expansion-is-unevenly-spread-1506344400'
p8
aS'https://www.wsj.com/articles/colleges-move-to-close-gender-gap-in-science-1506331801'
p9
aS'https://www.wsj.com/articles/target-to-boost-minimum-wages-in-battle-for-store-workers-1506340801'
p10
a.