(lp0
S'https://www.wsj.com/articles/tillerson-in-rare-high-level-acknowledgment-says-u-s-is-in-direct-contact-with-north-korea-1506787266'
p1
aS'https://www.wsj.com/articles/trump-criticizes-puerto-rico-mayor-over-poor-leadership-1506780274'
p2
aS'https://www.wsj.com/articles/supreme-court-majority-ponders-conservative-priorities-1506855602'
p3
aS'https://www.wsj.com/articles/hedge-funds-aint-dead-yet-1506859200'
p4
aS'https://www.wsj.com/articles/voters-turn-out-in-catalonia-for-independence-referendum-1506838287'
p5
aS'https://www.wsj.com/articles/facebook-is-still-in-denial-about-its-biggest-problem-1506855607'
p6
aS'https://www.wsj.com/articles/oil-prices-bounce-back-in-third-quarter-1506855610'
p7
aS'http://graphics.wsj.com/image-grid/Books-September-30/'
p8
aS'https://www.wsj.com/articles/new-ford-chief-is-ready-to-start-tinkering-under-the-hood-1506774337'
p9
aS'https://www.wsj.com/articles/j-p-morgans-record-high-crowns-bank-stock-rebound-1506855605'
p10
a.