(lp0
S'https://www.washingtonpost.com/world/national-security/reports-us-to-slash-embassy-staff-in-cuba-warn-travelers-of-hotel-attacks/2017/09/29/c0bf9d94-a523-11e7-b14f-f41773cd5a14_story.html'
p1
aS'https://www.washingtonpost.com/news/powerpost/paloma/daily-202/2017/09/29/daily-202-putting-tom-price-s-charter-flights-in-perspective/59cd5e8f30fb0468cea81c73/'
p2
aS'https://www.washingtonpost.com/news/powerpost/paloma/the-health-202/2017/09/29/the-health-202-here-s-how-tom-price-could-be-spending-his-time/59cd453030fb0468cea81c61/'
p3
aS'https://www.washingtonpost.com/powerpost/mitch-mcconnell-had-a-tough-week-more-struggles--tax-cuts-midterms--are-coming/2017/09/28/c4bc6ab4-a44f-11e7-8cfe-d5b912fabc99_story.html'
p4
aS'http://www.washingtonpost.com/sf/style/2017/09/27/darrell-hammond-was-snls-best-donald-trump-and-its-best-impressionist-ever-so-what-went-wrong/'
p5
aS'https://www.washingtonpost.com/news/post-nation/wp/2017/09/29/san-juan-mayor-slams-trump-administration-comments-on-puerto-rico-hurricane-response/'
p6
aS'https://www.washingtonpost.com/news/post-politics/wp/2017/09/29/trump-big-decisions-ahead-on-how-much-to-spend-on-a-destroyed-puerto-rico/'
p7
aS'https://www.washingtonpost.com/national/puerto-ricos-humanitarian-crisis-nowhere-more-obvious-than-at-hospitals/2017/09/28/a201bc0a-a47b-11e7-b14f-f41773cd5a14_story.html'
p8
aS'https://www.washingtonpost.com/world/europe/in-catalonias-wild-card-bid-to-secede-from-spain-youth-want-a-big-voice/2017/09/29/e5f0c8ac-a2d7-11e7-b573-8ec86cdfe1ed_story.html'
p9
aS'https://www.washingtonpost.com/news/grade-point/wp/2017/09/28/racial-slurs-written-on-doors-of-five-black-cadet-candidates-at-air-force-academy-preparatory-school/'
p10
a.