(lp0
S'https://www.nytimes.com/2017/09/27/obituaries/hugh-hefner-dead.html'
p1
aS'https://www.nytimes.com/2017/09/28/us/jones-act-waived.html'
p2
aS'https://www.nytimes.com/interactive/2017/09/27/us/politics/six-charts-to-explain-the-republican-tax-plan.html'
p3
aS'https://www.nytimes.com/2017/09/27/business/media/paul-horner-dead-fake-news.html'
p4
aS'https://www.nytimes.com/2017/09/27/magazine/donald-trump-jrs-great-escape.html'
p5
aS'https://www.nytimes.com/2017/09/27/us/politics/trump-tax-cut-plan-middle-class-deficit.html'
p6
aS'https://www.nytimes.com/2017/09/27/us/obama-malia-harvard.html'
p7
aS'https://www.nytimes.com/interactive/2017/09/28/us/politics/trump-tax-benefit.html'
p8
aS'https://www.nytimes.com/interactive/2017/09/27/upshot/trump-statements-soon.html'
p9
aS'https://www.nytimes.com/2017/09/28/arts/television/breast-cancer-julia-louis-dreyfus.html'
p10
a.