(lp0
S'https://www.washingtonpost.com/world/national-security/trump-contradicts-tillerson-on-north-korea-the-latest-in-a-series-of-put-downs/2017/10/01/1f11f886-a6bb-11e7-92d1-58c702d2d975_story.html'
p1
aS'https://www.washingtonpost.com/world/national-security/a-north-korean-ship-was-seized-off-egypt-with-a-huge-cache-of-weapons-destined-for-a-surprising-buyer/2017/10/01/d9a4e06e-a46d-11e7-b14f-f41773cd5a14_story.html'
p2
aS'https://www.washingtonpost.com/politics/courts_law/2017/10/01/38d5bbc2-a521-11e7-b14f-f41773cd5a14_story.html'
p3
aS'https://www.washingtonpost.com/world/spanish-riot-police-deployed-as-chaotic-vote-in-catalan-independence-referendum-gets-underway/2017/10/01/411b68a2-a2da-11e7-b573-8ec86cdfe1ed_story.html'
p4
aS'https://www.washingtonpost.com/national/health-science/cancer-fighting-power-couple-tackles-mysteries-of-the-immune-system/2017/09/29/db52e514-810e-11e7-ab27-1a21a8e006ab_story.html'
p5
aS'https://www.washingtonpost.com/news/powerpost/wp/2017/10/01/san-juan-mayor-continues-calls-for-relief-after-attacks-from-trump/'
p6
aS'https://www.washingtonpost.com/news/the-fix/wp/2017/10/01/snls-kanye-west-moment-michael-che-unloads-on-trump-as-cheap-cracker-b-over-puerto-rico/'
p7
aS'https://www.washingtonpost.com/powerpost/republicans-defend-tax-plan-as-a-middle-class-tax-cut/2017/10/01/061e6ccc-a6c7-11e7-850e-2bdd1236be5d_story.html'
p8
aS'https://www.washingtonpost.com/news/early-lead/wp/2017/10/01/quietly-and-with-little-attention-o-j-simpson-is-released-from-prison-early-sunday-morning/'
p9
aS'https://www.washingtonpost.com/world/europe/nazi-stasi-in-german-state-where-the-far-right-won-big-cozy-political-culture-quickly-turned-toxic/2017/10/01/c2344c1a-a2cb-11e7-b573-8ec86cdfe1ed_story.html'
p10
a.