(lp0
S'https://www.nytimes.com/2017/09/25/opinion/colin-kaepernick-football-protests.html'
p1
aS'https://www.nytimes.com/2017/09/25/sports/nfl-owners-unity-protests.html'
p2
aS'https://www.nytimes.com/2017/09/27/us/politics/trump-tax-cut-plan-middle-class-deficit.html'
p3
aS'https://www.nytimes.com/2017/09/26/world/middleeast/saudi-arabia-women-drive.html'
p4
aS'https://www.nytimes.com/2017/09/25/us/politics/private-email-trump-kushner-bannon.html'
p5
aS'https://www.nytimes.com/2017/09/26/magazine/how-fake-news-turned-a-small-town-upside-down.html'
p6
aS'https://www.nytimes.com/2017/09/26/us/politics/roy-moore-alabama-senate.html'
p7
aS'https://www.nytimes.com/2017/09/26/us/politics/mcconnell-obamacare-repeal-graham-cassidy-trump.html'
p8
aS'https://www.nytimes.com/2017/09/26/us/politics/chuck-rosenberg-dea-resigns.html'
p9
aS'https://www.nytimes.com/2017/09/24/opinion/dying-art-of-disagreement.html'
p10
a.