(lp0
S'https://www.wsj.com/articles/equifax-ceo-richard-smith-to-retire-following-massive-data-breach-1506431571'
p1
aS'https://www.wsj.com/articles/revised-gop-health-bill-targets-wavering-senators-1506351034'
p2
aS'https://www.wsj.com/articles/the-gop-tax-plan-tough-choices-with-limited-room-to-maneuver-1506418204'
p3
aS'https://www.wsj.com/articles/big-investors-want-directors-to-stop-sitting-on-so-many-boards-1506418201'
p4
aS'https://www.wsj.com/articles/north-korean-official-says-u-s-has-declared-war-1506354640'
p5
aS'https://www.wsj.com/articles/u-s-to-curb-russian-military-flights-over-american-territory-1506402871'
p6
aS'https://www.wsj.com/articles/nestle-gives-loeb-what-he-wants-new-margin-targets-faster-buybacks-1506408740'
p7
aS'https://www.wsj.com/articles/arrests-expected-in-probe-of-alleged-bribery-kickbacks-at-college-basketball-programs-1506431065'
p8
aS'https://www.wsj.com/articles/sec-enforcement-probe-led-to-renewed-look-at-2016-hack-1506364518'
p9
aS'https://www.wsj.com/articles/meet-the-man-behind-the-fdas-nicotine-fix-1506427200'
p10
a.