(lp0
S'https://www.washingtonpost.com/investigations/how-the-military-handles-sexual-assault-cases-behind-closed-doors/2017/09/30/a9df0682-672a-11e7-a1d7-9a32c91c6f40_story.html'
p1
aS'https://www.washingtonpost.com/world/spanish-riot-police-deployed-as-chaotic-vote-in-catalan-independence-referendum-gets-underway/2017/10/01/411b68a2-a2da-11e7-b573-8ec86cdfe1ed_story.html'
p2
aS'https://www.washingtonpost.com/news/post-politics/wp/2017/09/30/ahead-of-sundays-nfl-games-trump-renews-his-call-for-players-to-stand-during-anthem/'
p3
aS'http://www.washingtonpost.com/sf/national/2017/09/30/stormislands1001/'
p4
aS'https://www.washingtonpost.com/news/powerpost/wp/2017/09/30/its-a-disgraceful-job-puerto-rican-congressman-slams-trump-over-hurricane-response/'
p5
aS'https://www.washingtonpost.com/news/arts-and-entertainment/wp/2017/10/01/snl-returns-and-alec-baldwins-trump-seriously-bungles-the-puerto-rico-response/'
p6
aS'https://www.washingtonpost.com/politics/the-past-week-showed-how-much-trump-is-struggling-to-be-the-president-he-promised/2017/09/30/3da5217e-a5cb-11e7-b14f-f41773cd5a14_story.html'
p7
aS'https://www.washingtonpost.com/politics/trump-attacks-mayor-of-san-juan-ratcheting-up-tensions-over-crisis-in-puerto-rico/2017/09/30/c9ce821c-a5fd-11e7-ade1-76d061d56efa_story.html'
p8
aS'https://www.washingtonpost.com/world/national-security/trump-signed-presidential-directive-ordering-actions-to-pressure-north-korea/2017/09/30/97c6722a-a620-11e7-b14f-f41773cd5a14_story.html'
p9
aS'https://www.washingtonpost.com/news/early-lead/wp/2017/10/01/jay-z-sent-a-message-wearing-a-colin-k-jersey-during-snl/'
p10
a.