(lp0
S'https://www.nytimes.com/2017/09/24/sports/nfl-trump-anthem-protests.html'
p1
aS'https://www.nytimes.com/2017/09/24/us/politics/trump-calls-for-boycott-if-nfl-doesnt-crack-down-on-anthem-protests.html'
p2
aS'https://www.nytimes.com/2017/09/24/us/politics/new-order-bars-almost-all-travel-from-seven-countries.html'
p3
aS'https://www.nytimes.com/2017/09/23/sports/stephen-curry-trump-nba-.html'
p4
aS'https://www.nytimes.com/2017/09/23/technology/silicon-valley-men-backlash-gender-scandals.html'
p5
aS'https://www.nytimes.com/2017/09/23/opinion/sunday/facebook-zuckerberg-dowd.html'
p6
aS'https://www.nytimes.com/2017/09/23/sports/football/trump-nfl-kaepernick.html'
p7
aS'https://www.nytimes.com/2017/09/23/style/how-to-survive-the-apocalypse.html'
p8
aS'https://www.nytimes.com/2017/09/24/us/politics/trump-divisiveness.html'
p9
aS'https://www.nytimes.com/2017/09/19/style/crush-on-coworker.html'
p10
a.