(lp0
S'https://www.washingtonpost.com/politics/alabama-defeat-leaves-trump-badly-weakened-isolated-amid-mounting-challenges/2017/09/27/5983f748-a39c-11e7-b14f-f41773cd5a14_story.html'
p1
aS'https://www.washingtonpost.com/politics/can-the-gop-ever-finesse-the-contradictions-in-their-coalition/2017/09/27/8e54ee44-a3a3-11e7-b573-8ec86cdfe1ed_story.html'
p2
aS'https://www.washingtonpost.com/business/economy/gop-tax-document-reveals-plan-for-massive-tax-cuts-preserves-key-deductions/2017/09/27/684ea40e-a387-11e7-ade1-76d061d56efa_story.html'
p3
aS'https://www.washingtonpost.com/politics/trump-travels-to-indiana-to-sell-his-tax-plan-but-leaves-his-usual-zeal-at-home/2017/09/27/09516a54-a3a0-11e7-b14f-f41773cd5a14_story.html'
p4
aS'https://www.washingtonpost.com/news/energy-environment/wp/2017/09/27/zinke-says-his-workers-are-disloyal-they-say-his-personnel-moves-break-the-law/'
p5
aS'https://www.washingtonpost.com/national/trump-administration-surges-military-assets-to-puerto-rico-amid-growing-crisis/2017/09/27/43832750-a39e-11e7-8cfe-d5b912fabc99_story.html'
p6
aS'https://www.washingtonpost.com/news/the-fix/wp/2017/09/27/all-about-the-jones-act-an-obscure-shipping-law-thats-stalling-puerto-ricos-recovery/'
p7
aS'https://www.washingtonpost.com/news/powerpost/wp/2017/09/27/white-house-restricting-lawmakers-from-visiting-puerto-rico-u-s-virgin-islands-aides-say/'
p8
aS'https://www.washingtonpost.com/politics/courts_law/gorsuchs-speeches-raise-questions-of-independence-critics-say/2017/09/27/5accdb3c-a230-11e7-b14f-f41773cd5a14_story.html'
p9
aS'https://www.washingtonpost.com/news/energy-environment/wp/2017/09/27/epas-pruitt-took-charter-military-flights-that-cost-taxpayers-more-than-58000/'
p10
a.