(lp0
S'https://www.wsj.com/articles/what-awaits-wall-street-in-trump-tax-plan-1506596402'
p1
aS'https://www.wsj.com/articles/health-insurers-make-final-call-on-aca-plans-1506519297'
p2
aS'https://www.wsj.com/articles/kellogg-ceo-john-bryant-to-step-down-1506603901'
p3
aS'https://www.wsj.com/articles/amazon-effect-leads-investors-to-sour-on-retail-1506591003'
p4
aS'https://www.wsj.com/articles/hugh-hefner-founder-of-playboy-magazine-who-helped-usher-in-sexual-revolution-dies-1506569220'
p5
aS'https://www.wsj.com/articles/toshiba-signs-deal-to-sell-chip-unit-to-bain-apple-group-1506581351'
p6
aS'https://www.wsj.com/articles/for-kangol-hats-made-in-america-is-slower-and-more-expensive-1506591000'
p7
aS'https://www.wsj.com/articles/in-russia-spotlight-falls-on-oil-boss-1506591001'
p8
aS'https://www.wsj.com/articles/political-disruption-helps-fuel-gops-woes-1506547524'
p9
aS'https://www.wsj.com/articles/apple-is-interested-in-japan-displays-lcds-for-some-iphones-next-year-1506573887'
p10
a.