(lp0
S'https://www.wsj.com/articles/republicans-unveil-plan-to-overhaul-u-s-tax-code-1506522802'
p1
aS'https://www.wsj.com/articles/5-takeaways-from-the-gop-tax-framework-1506538938'
p2
aS'https://www.wsj.com/articles/health-insurers-make-final-call-on-aca-plans-1506519297'
p3
aS'https://www.wsj.com/articles/departure-of-pepsico-lawyer-is-focus-of-sec-probe-1506504603'
p4
aS'https://www.wsj.com/articles/retail-stores-made-elmira-n-y-an-unlikely-successnow-theyre-gone-1506525802'
p5
aS'https://www.wsj.com/articles/harvard-takes-top-honors-in-wsj-the-college-rankings-1506466800'
p6
aS'https://www.wsj.com/articles/lawmakers-seek-waiver-of-law-barring-foreign-ships-from-delivering-aid-to-puerto-rico-1506529999'
p7
aS'https://www.wsj.com/articles/probe-into-ncaa-basketball-relies-on-unusual-legal-theories-1506553296'
p8
aS'https://www.wsj.com/articles/in-vetting-refugees-u-s-plans-to-assess-ability-to-assimilate-1506557243'
p9
aS'https://www.wsj.com/articles/apple-iphone-x-production-woe-sparked-by-juliet-and-her-romeo-1506510189'
p10
a.