(lp0
S'https://www.usatoday.com/story/news/world/2017/09/29/north-korea-key-date-approaches/715836001/'
p1
aS'https://www.usatoday.com/story/news/politics/2017/09/28/accused-nsa-leaker-confession/715062001/'
p2
aS'https://www.usatoday.com/story/tech/columnist/komando/2017/09/29/how-stop-your-devices-listening-and-saving-what-you-say/715129001/'
p3
aS'https://www.usatoday.com/story/life/movies/2017/09/28/steve-carell-just-soared-into-oscar-race-richard-linklater-last-flag-flying/713971001/'
p4
aS'https://www.usatoday.com/story/news/2017/09/29/air-force-academy-head-tells-racists-get-oudelivers-stern-lecture-wake-racial-slurs-found-prep-schoo/715755001/'
p5
aS'https://www.cnbc.com/2017/09/28/4-big-tax-breaks-you-may-lose-under-gop-tax-plan.html'
p6
aS'https://www.usatoday.com/story/news/world/2017/09/29/these-zimbabwe-children-hunt-delicacy-mice-and-sell-them-snacks/716123001/'
p7
aS'https://www.usatoday.com/story/news/world/2017/09/29/stampede-indian-bridge/715628001/'
p8
aS'http://www.packersnews.com/story/sports/nfl/packers/2017/09/28/packers-lock-arms-during-anthem-fans-chant-usa-usa/714555001/'
p9
aS'https://www.usatoday.com/story/travel/destinations/2017/09/29/gas-station-coffee/714594001/'
p10
a.