(lp0
S'https://www.usatoday.com/story/news/politics/2017/09/27/trumps-tax-plan-could-actually-benefit-wealthy-people-like-him/709648001/'
p1
aS'https://www.usatoday.com/story/sports/ncaab/columnist/2017/09/27/rick-pitino-louisville-legacy-great-coach-too-many-scandals/709384001/'
p2
aS'https://www.usatoday.com/story/sports/nfl/2017/09/27/donald-trump-nfl-protests-national-anthem-president/710507001/'
p3
aS'http://www.vcstar.com/story/news/local/2017/09/27/what-do-nuclear-explosion-ventura-county-has-plan/705170001'
p4
aS'https://www.usatoday.com/story/news/politics/2017/09/27/how-president-trumps-tax-plan-affects-you-and-what-we-still-dont-know/705376001/'
p5
aS'https://www.usatoday.com/story/life/entertainthis/2017/09/27/what-lampshading-leggy-fashion-trend-explained/703844001/'
p6
aS'https://www.usatoday.com/story/sports/nfl/2017/09/27/giants-lineman-has-change-heart-national-anthem-protest/709790001/'
p7
aS'https://www.usatoday.com/story/life/tv/2017/09/27/jane-fonda-megyn-kelly-plastic-surgery-today/710857001/'
p8
aS'https://www.usatoday.com/story/life/tv/2017/09/27/view-taps-meghan-mccain-new-co-host/710582001/'
p9
aS'https://www.usatoday.com/story/life/people/2017/09/27/russia-steven-seagal-blasts-disgusting-nfl-protests/710075001/'
p10
a.