(lp0
S'https://www.usatoday.com/story/sports/nfl/2017/09/25/donald-trump-returns-twitter-comment-nfl-protests-discuss-race-national-anthem/699115001/'
p1
aS'http://www.azcentral.com/story/news/politics/arizona/2017/09/24/sen-john-mccain-doctors-gave-me-poor-prognosis-brain-cancer-fight-60-minutes/698677001'
p2
aS'https://www.usatoday.com/story/news/world/2017/09/25/north-korean-propaganda-video/699204001/'
p3
aS'https://www.usatoday.com/story/sports/nascar/2017/09/25/dale-earnhardt-jr-quotes-jfk-says-americans-have-right-peaceful-protests/699171001/'
p4
aS'http://www.tennessean.com/story/news/crime/2017/09/24/tennessee-church-shooting-victim-says-she-played-dead/698669001'
p5
aS'http://www.news-press.com/story/news/local/2017/09/21/lee-health-fires-then-rehires-its-essential-employees-who-did-not-work-during-irma/687117001'
p6
aS'https://www.usatoday.com/story/news/nation/2017/09/25/got-bit-virginia-woman-bitten-copperhead-snake-longhorn-steakhouse/699163001/'
p7
aS'https://www.usatoday.com/story/news/politics/2017/09/25/fbi-violent-crime-increases-second-straight-year/699161001/'
p8
aS'https://www.usatoday.com/story/news/nation/2017/09/25/judgement-day-has-arrived-anthony-weiner-sexting-scandal/699157001/'
p9
aS'https://www.usatoday.com/story/tech/talkingtech/2017/09/25/apple-iphone-8-plus-camera-test-slight-improvements-7-plus/697271001/'
p10
a.