(lp0
S'https://www.usatoday.com/story/news/nation/2017/10/01/trump-twitter-vent-spur-donations-puerto-rico/721166001/'
p1
aS'https://www.usatoday.com/story/news/politics/2017/10/01/trump-resumes-defense-puerto-rico-disaster-response-apparent-attack-san-juan-mayor/720922001/'
p2
aS'https://www.usatoday.com/story/news/politics/2017/09/26/supreme-court-faces-blockbuster-term-and-trump/667367001/'
p3
aS'https://www.usatoday.com/story/news/2017/10/01/rep-steve-scalise-prayed-during-shooting/721617001/'
p4
aS'https://www.usatoday.com/story/sports/columnist/nancy-armour/2017/10/01/patriots-shambles-tom-brady-couldnt-salvage-win-panthers/721461001/'
p5
aS'https://www.usatoday.com/story/sports/nfl/2017/10/01/nfl-protests-national-anthem-players-demonstrations-kneel-stand/721045001/'
p6
aS'http://www.thestarpress.com/story/news/crime/2017/10/01/couple-admits-stealing-1-2-million-amazon/720381001'
p7
aS'https://www.usatoday.com/story/news/nation/2017/10/01/puerto-rico-want-and-generosity/720663001/'
p8
aS'https://www.usatoday.com/story/life/tv/2017/10/01/wwii-hero-donald-malarkey-portrayed-band-brothers-has-died/721732001/'
p9
aS'https://www.usatoday.com/story/opinion/2017/10/01/jones-act-swamp-creature-strangling-puerto-rico-refuses-to-die-colin-grabow-column/716162001/'
p10
a.