(lp0
S'https://www.usatoday.com/story/life/nation-now/2017/09/27/playboy-founder-hugh-hefner-dies-91/711182001/'
p1
aS'http://www.greenbaypressgazette.com/story/news/2017/09/27/packers-national-anthem-plans-continue-rile-fans/703520001/'
p2
aS'https://www.usatoday.com/story/news/politics/onpolitics/2017/09/27/meghan-mccain-calls-report-trump-mocked-her-dad-abhorrent/710913001/'
p3
aS'https://www.usatoday.com/story/news/2017/09/28/trump-waives-shipping-restrictions-puerto-rico/711541001/'
p4
aS'https://www.usatoday.com/story/life/2017/09/27/visited-hef-mansion-heres-what-happened/711242001/'
p5
aS'https://www.usatoday.com/story/news/world/2017/09/28/north-korea-millions-sign-up-military/711381001/'
p6
aS'https://www.usatoday.com/story/life/tv/2017/09/27/jane-fonda-megyn-kelly-plastic-surgery-today/710857001/'
p7
aS'https://www.usatoday.com/story/news/politics/onpolitics/2017/09/28/trump-anthem-protests-nfl-owners-afraid-their-players/711470001/'
p8
aS'https://www.usatoday.com/story/news/politics/2017/09/28/congress-must-act-weekend-9-millimmunity-health-center-funding-runs-out-weekend-if-congress-fails-ac/710310001/'
p9
aS'https://www.usatoday.com/story/news/nation/2017/09/28/huge-rock-fall-kills-1-injures-1-yosemites-el-capitan/711402001/'
p10
a.