(lp0
S'https://www.usatoday.com/story/sports/2017/09/30/oj-simpson-prison-release-nevada/720765001/'
p1
aS'https://www.usatoday.com/story/life/entertainthis/2017/10/01/saturday-night-live-knocks-trump-puerto-rico-response-season-premiere/720747001/'
p2
aS'https://www.usatoday.com/story/news/politics/onpolitics/2017/09/30/former-cia-director-obliquely-questions-trumps-leadership-puerto-rico-crisis/720624001/'
p3
aS'https://www.usatoday.com/story/sports/ncaaf/2017/09/30/college-footballs-week-5-winners-and-losers/720397001/'
p4
aS'https://www.usatoday.com/story/life/entertainthis/2017/10/01/ryan-gosling-bursts-into-giggles-again-during-saturday-night-live-sketch-kate-mckinnon/720809001/'
p5
aS'https://www.usatoday.com/story/news/nation/2017/10/01/puerto-rico-want-and-generosity/720663001/'
p6
aS'https://www.usatoday.com/story/life/people/2017/09/30/hollywood-takes-trump-woodshed-over-his-tweets-san-juan-mayor/719532001/'
p7
aS'https://www.usatoday.com/story/news/world/2017/10/01/spain-riot-police-smash-way-into-catalan-voting-center/720890001/'
p8
aS'https://www.usatoday.com/story/life/people/2017/10/01/marilyn-manson-injured-stage-prop-during-nyc-show/720893001/'
p9
aS'https://www.usatoday.com/story/sports/2017/09/30/trump-tweets-important-nfl-players-stand-anthem/720385001/'
p10
a.