(lp0
S'https://www.usatoday.com/story/sports/nfl/2017/09/26/donald-trump-big-progress-being-made-after-cowboys-pre-anthem-protest/703019001/'
p1
aS'https://www.usatoday.com/story/sports/nfl/cowboys/2017/09/26/dallas-cowboys-pre-national-anthem-compromise-classic-jerry-jones/702959001/'
p2
aS'https://www.usatoday.com/story/news/nation/2017/09/26/san-juan-mayor-trump-tweets-you-dont-put-debt-above-people/703096001/'
p3
aS'https://www.usatoday.com/story/money/2017/09/26/orange-juice-prices-may-shock-you-when-you-pay-much-more/700265001/'
p4
aS'https://www.usatoday.com/story/sports/nfl/steelers/2017/09/25/alejandro-villanueva-national-anthem-pittsburgh-steelers-protest-trump/702056001/'
p5
aS'https://www.usatoday.com/story/sports/nfl/2017/09/26/tillmans-widow-dont-politicize-pat-in-effort-to-divide/106005404/'
p6
aS'https://www.usatoday.com/story/money/2017/09/26/fda-drug-shortages-hurricane-maria-puerto-rico/703071001/'
p7
aS'http://rssfeeds.usatoday.com/~/461507692/0/usatoday-newstopstories~In-a-world-without-a-wall-ranchers-carry-on-but-remember-before-it-all-went-bad'
p8
aS'https://www.usatoday.com/story/money/2017/09/26/women-100-best-companies-working-mother/700906001/'
p9
aS'http://www.freep.com/story/news/2017/09/25/detroit-crime-violence/700443001'
p10
a.